
I2C_interrupt_Driver.elf:     file format elf32-littlearm

Sections:
Idx Name          Size      VMA       LMA       File off  Algn
  0 .isr_vector   0000018c  08000000  08000000  00001000  2**0
                  CONTENTS, ALLOC, LOAD, READONLY, DATA
  1 .text         00000e38  0800018c  0800018c  0000118c  2**2
                  CONTENTS, ALLOC, LOAD, READONLY, CODE
  2 .rodata       00000000  08000fc4  08000fcc  00001fcc  2**0
                  CONTENTS, ALLOC, LOAD, DATA
  3 .ARM.extab    00000000  08000fc4  08000fc4  00001fcc  2**0
                  CONTENTS, READONLY
  4 .ARM          00000000  08000fc4  08000fc4  00001fcc  2**0
                  CONTENTS, READONLY
  5 .preinit_array 00000000  08000fc4  08000fcc  00001fcc  2**0
                  CONTENTS, ALLOC, LOAD, DATA
  6 .init_array   00000004  08000fc4  08000fc4  00001fc4  2**2
                  CONTENTS, ALLOC, LOAD, READONLY, DATA
  7 .fini_array   00000004  08000fc8  08000fc8  00001fc8  2**2
                  CONTENTS, ALLOC, LOAD, READONLY, DATA
  8 .data         00000000  20000000  20000000  00001fcc  2**0
                  CONTENTS, ALLOC, LOAD, DATA
  9 .sram2        00000000  10000000  10000000  00001fcc  2**0
                  CONTENTS
 10 .bss          00000070  20000000  20000000  00002000  2**2
                  ALLOC
 11 ._user_heap_stack 00000600  20000070  20000070  00002000  2**0
                  ALLOC
 12 .ARM.attributes 00000030  00000000  00000000  00001fcc  2**0
                  CONTENTS, READONLY
 13 .debug_info   0000226a  00000000  00000000  00001ffc  2**0
                  CONTENTS, READONLY, DEBUGGING, OCTETS
 14 .debug_abbrev 0000062e  00000000  00000000  00004266  2**0
                  CONTENTS, READONLY, DEBUGGING, OCTETS
 15 .debug_aranges 00000218  00000000  00000000  00004898  2**3
                  CONTENTS, READONLY, DEBUGGING, OCTETS
 16 .debug_rnglists 0000018c  00000000  00000000  00004ab0  2**0
                  CONTENTS, READONLY, DEBUGGING, OCTETS
 17 .debug_macro  00002411  00000000  00000000  00004c3c  2**0
                  CONTENTS, READONLY, DEBUGGING, OCTETS
 18 .debug_line   000027b1  00000000  00000000  0000704d  2**0
                  CONTENTS, READONLY, DEBUGGING, OCTETS
 19 .debug_str    0000991e  00000000  00000000  000097fe  2**0
                  CONTENTS, READONLY, DEBUGGING, OCTETS
 20 .comment      00000043  00000000  00000000  0001311c  2**0
                  CONTENTS, READONLY
 21 .debug_frame  000007c4  00000000  00000000  00013160  2**2
                  CONTENTS, READONLY, DEBUGGING, OCTETS
 22 .debug_line_str 00000059  00000000  00000000  00013924  2**0
                  CONTENTS, READONLY, DEBUGGING, OCTETS

Disassembly of section .text:

0800018c <__do_global_dtors_aux>:
 800018c:	b510      	push	{r4, lr}
 800018e:	4c05      	ldr	r4, [pc, #20]	@ (80001a4 <__do_global_dtors_aux+0x18>)
 8000190:	7823      	ldrb	r3, [r4, #0]
 8000192:	b933      	cbnz	r3, 80001a2 <__do_global_dtors_aux+0x16>
 8000194:	4b04      	ldr	r3, [pc, #16]	@ (80001a8 <__do_global_dtors_aux+0x1c>)
 8000196:	b113      	cbz	r3, 800019e <__do_global_dtors_aux+0x12>
 8000198:	4804      	ldr	r0, [pc, #16]	@ (80001ac <__do_global_dtors_aux+0x20>)
 800019a:	f3af 8000 	nop.w
 800019e:	2301      	movs	r3, #1
 80001a0:	7023      	strb	r3, [r4, #0]
 80001a2:	bd10      	pop	{r4, pc}
 80001a4:	20000000 	.word	0x20000000
 80001a8:	00000000 	.word	0x00000000
 80001ac:	08000fac 	.word	0x08000fac

080001b0 <frame_dummy>:
 80001b0:	b508      	push	{r3, lr}
 80001b2:	4b03      	ldr	r3, [pc, #12]	@ (80001c0 <frame_dummy+0x10>)
 80001b4:	b11b      	cbz	r3, 80001be <frame_dummy+0xe>
 80001b6:	4903      	ldr	r1, [pc, #12]	@ (80001c4 <frame_dummy+0x14>)
 80001b8:	4803      	ldr	r0, [pc, #12]	@ (80001c8 <frame_dummy+0x18>)
 80001ba:	f3af 8000 	nop.w
 80001be:	bd08      	pop	{r3, pc}
 80001c0:	00000000 	.word	0x00000000
 80001c4:	20000004 	.word	0x20000004
 80001c8:	08000fac 	.word	0x08000fac

080001cc <SPI1_IRQHandler>:

char tx_buf[] = "Hello this is from Flash Memory";
char rx_buf[50];

void SPI1_IRQHandler(void)
{
 80001cc:	b580      	push	{r7, lr}
 80001ce:	af00      	add	r7, sp, #0
    SPI_IRQHandling(&SPI1Handle);
 80001d0:	4802      	ldr	r0, [pc, #8]	@ (80001dc <SPI1_IRQHandler+0x10>)
 80001d2:	f000 fa86 	bl	80006e2 <SPI_IRQHandling>
}
 80001d6:	bf00      	nop
 80001d8:	bd80      	pop	{r7, pc}
 80001da:	bf00      	nop
 80001dc:	2000001c 	.word	0x2000001c

080001e0 <I2C1_EV_IRQHandler>:
void I2C1_EV_IRQHandler(void)
{
 80001e0:	b580      	push	{r7, lr}
 80001e2:	af00      	add	r7, sp, #0
    I2C_EV_IRQHandling(&I2C1Handle);
 80001e4:	4802      	ldr	r0, [pc, #8]	@ (80001f0 <I2C1_EV_IRQHandler+0x10>)
 80001e6:	f000 fe3b 	bl	8000e60 <I2C_EV_IRQHandling>
}
 80001ea:	bf00      	nop
 80001ec:	bd80      	pop	{r7, pc}
 80001ee:	bf00      	nop
 80001f0:	2000003c 	.word	0x2000003c

080001f4 <main>:

uint8_t reg_addr = 0x00;
uint8_t sensor_data;int lux;
int main(void)
{
 80001f4:	b580      	push	{r7, lr}
 80001f6:	b084      	sub	sp, #16
 80001f8:	af00      	add	r7, sp, #0

	    /* GPIO Init */
	    I2C1_GPIOInits();
 80001fa:	f000 f86b 	bl	80002d4 <I2C1_GPIOInits>

	    /* I2C Peripheral Init */
	    I2C1_Inits();
 80001fe:	f000 f893 	bl	8000328 <I2C1_Inits>

	    GPIO_IRQITConfig(IRQ_NO_I2C1_EV, ENABLE);
 8000202:	2101      	movs	r1, #1
 8000204:	201f      	movs	r0, #31
 8000206:	f000 fc99 	bl	8000b3c <GPIO_IRQITConfig>

	    uint8_t config[3];
	    uint8_t reg = 0x00;
 800020a:	2300      	movs	r3, #0
 800020c:	70fb      	strb	r3, [r7, #3]
	    {
	        /*
	         * Sensor init
	         */

	        config[0] = 0x01;
 800020e:	2301      	movs	r3, #1
 8000210:	713b      	strb	r3, [r7, #4]
	        config[1] = 0xC4;
 8000212:	23c4      	movs	r3, #196	@ 0xc4
 8000214:	717b      	strb	r3, [r7, #5]
	        config[2] = 0x10;
 8000216:	2310      	movs	r3, #16
 8000218:	71bb      	strb	r3, [r7, #6]

	        I2C_MasterSendDataIT(&I2C1Handle,config,3, 0x47);
 800021a:	1d39      	adds	r1, r7, #4
 800021c:	2347      	movs	r3, #71	@ 0x47
 800021e:	2203      	movs	r2, #3
 8000220:	481e      	ldr	r0, [pc, #120]	@ (800029c <main+0xa8>)
 8000222:	f000 fd4f 	bl	8000cc4 <I2C_MasterSendDataIT>

//	        delay();
	        while(I2C1Handle.TxRxState != I2C_READY);
 8000226:	bf00      	nop
 8000228:	4b1c      	ldr	r3, [pc, #112]	@ (800029c <main+0xa8>)
 800022a:	7f1b      	ldrb	r3, [r3, #28]
 800022c:	2b00      	cmp	r3, #0
 800022e:	d1fb      	bne.n	8000228 <main+0x34>

	        /*
	         * Select result register
	         */

	        I2C_MasterSendDataIT(&I2C1Handle,&reg,1,0x47);
 8000230:	1cf9      	adds	r1, r7, #3
 8000232:	2347      	movs	r3, #71	@ 0x47
 8000234:	2201      	movs	r2, #1
 8000236:	4819      	ldr	r0, [pc, #100]	@ (800029c <main+0xa8>)
 8000238:	f000 fd44 	bl	8000cc4 <I2C_MasterSendDataIT>

	        /*
	         * Read 2 bytes
	         */
	        while(I2C1Handle.TxRxState != I2C_READY);
 800023c:	bf00      	nop
 800023e:	4b17      	ldr	r3, [pc, #92]	@ (800029c <main+0xa8>)
 8000240:	7f1b      	ldrb	r3, [r3, #28]
 8000242:	2b00      	cmp	r3, #0
 8000244:	d1fb      	bne.n	800023e <main+0x4a>
	        I2C_MasterReceiveDataIT(&I2C1Handle,data,2,0x47);
 8000246:	4639      	mov	r1, r7
 8000248:	2347      	movs	r3, #71	@ 0x47
 800024a:	2202      	movs	r2, #2
 800024c:	4813      	ldr	r0, [pc, #76]	@ (800029c <main+0xa8>)
 800024e:	f000 fd9c 	bl	8000d8a <I2C_MasterReceiveDataIT>

//	        delay();
	        while(I2C1Handle.TxRxState != I2C_READY);
 8000252:	bf00      	nop
 8000254:	4b11      	ldr	r3, [pc, #68]	@ (800029c <main+0xa8>)
 8000256:	7f1b      	ldrb	r3, [r3, #28]
 8000258:	2b00      	cmp	r3, #0
 800025a:	d1fb      	bne.n	8000254 <main+0x60>

	        uint16_t raw = (data[0] << 8) | data[1];
 800025c:	783b      	ldrb	r3, [r7, #0]
 800025e:	b21b      	sxth	r3, r3
 8000260:	021b      	lsls	r3, r3, #8
 8000262:	b21a      	sxth	r2, r3
 8000264:	787b      	ldrb	r3, [r7, #1]
 8000266:	b21b      	sxth	r3, r3
 8000268:	4313      	orrs	r3, r2
 800026a:	b21b      	sxth	r3, r3
 800026c:	81fb      	strh	r3, [r7, #14]

	        uint16_t exponent = (raw >> 12) & 0x0F;
 800026e:	89fb      	ldrh	r3, [r7, #14]
 8000270:	0b1b      	lsrs	r3, r3, #12
 8000272:	81bb      	strh	r3, [r7, #12]

	        uint16_t mantissa = raw & 0x0FFF;
 8000274:	89fb      	ldrh	r3, [r7, #14]
 8000276:	f3c3 030b 	ubfx	r3, r3, #0, #12
 800027a:	817b      	strh	r3, [r7, #10]

	         lux = (mantissa * (1 << exponent)) / 100;
 800027c:	897a      	ldrh	r2, [r7, #10]
 800027e:	89bb      	ldrh	r3, [r7, #12]
 8000280:	fa02 f303 	lsl.w	r3, r2, r3
 8000284:	4a06      	ldr	r2, [pc, #24]	@ (80002a0 <main+0xac>)
 8000286:	fb82 1203 	smull	r1, r2, r2, r3
 800028a:	1152      	asrs	r2, r2, #5
 800028c:	17db      	asrs	r3, r3, #31
 800028e:	1ad3      	subs	r3, r2, r3
 8000290:	4a04      	ldr	r2, [pc, #16]	@ (80002a4 <main+0xb0>)
 8000292:	6013      	str	r3, [r2, #0]

	        delay();
 8000294:	f000 f808 	bl	80002a8 <delay>
	    {
 8000298:	e7b9      	b.n	800020e <main+0x1a>
 800029a:	bf00      	nop
 800029c:	2000003c 	.word	0x2000003c
 80002a0:	51eb851f 	.word	0x51eb851f
 80002a4:	2000006c 	.word	0x2000006c

080002a8 <delay>:
	    }
}
void delay(void)
{
 80002a8:	b480      	push	{r7}
 80002aa:	b083      	sub	sp, #12
 80002ac:	af00      	add	r7, sp, #0
    for(uint32_t i = 0; i < 500000/2; i++);
 80002ae:	2300      	movs	r3, #0
 80002b0:	607b      	str	r3, [r7, #4]
 80002b2:	e002      	b.n	80002ba <delay+0x12>
 80002b4:	687b      	ldr	r3, [r7, #4]
 80002b6:	3301      	adds	r3, #1
 80002b8:	607b      	str	r3, [r7, #4]
 80002ba:	687b      	ldr	r3, [r7, #4]
 80002bc:	4a04      	ldr	r2, [pc, #16]	@ (80002d0 <delay+0x28>)
 80002be:	4293      	cmp	r3, r2
 80002c0:	d9f8      	bls.n	80002b4 <delay+0xc>
}
 80002c2:	bf00      	nop
 80002c4:	bf00      	nop
 80002c6:	370c      	adds	r7, #12
 80002c8:	46bd      	mov	sp, r7
 80002ca:	f85d 7b04 	ldr.w	r7, [sp], #4
 80002ce:	4770      	bx	lr
 80002d0:	0003d08f 	.word	0x0003d08f

080002d4 <I2C1_GPIOInits>:
/*********************************************************************
 *                      I2C GPIO INIT
 *********************************************************************/

void I2C1_GPIOInits(void)
{
 80002d4:	b580      	push	{r7, lr}
 80002d6:	b084      	sub	sp, #16
 80002d8:	af00      	add	r7, sp, #0

	GPIOB_PCLK_EN();
 80002da:	4b11      	ldr	r3, [pc, #68]	@ (8000320 <I2C1_GPIOInits+0x4c>)
 80002dc:	6cdb      	ldr	r3, [r3, #76]	@ 0x4c
 80002de:	4a10      	ldr	r2, [pc, #64]	@ (8000320 <I2C1_GPIOInits+0x4c>)
 80002e0:	f043 0302 	orr.w	r3, r3, #2
 80002e4:	64d3      	str	r3, [r2, #76]	@ 0x4c
    /*
     * PB8  -> I2C1_SCL
     * PB9  -> I2C1_SDA
     */

    I2CPins.pGPIOx = GPIOB;
 80002e6:	4b0f      	ldr	r3, [pc, #60]	@ (8000324 <I2C1_GPIOInits+0x50>)
 80002e8:	607b      	str	r3, [r7, #4]

    I2CPins.GPIO_PinConfig.GPIO_PinMode = GPIO_MODE_ALTFN;
 80002ea:	2302      	movs	r3, #2
 80002ec:	727b      	strb	r3, [r7, #9]
    I2CPins.GPIO_PinConfig.GPIO_PinOPType = GPIO_OP_TYPE_OD;
 80002ee:	2301      	movs	r3, #1
 80002f0:	733b      	strb	r3, [r7, #12]
    I2CPins.GPIO_PinConfig.GPIO_PinPuPdControl = GPIO_PIN_PU;
 80002f2:	2301      	movs	r3, #1
 80002f4:	72fb      	strb	r3, [r7, #11]
    I2CPins.GPIO_PinConfig.GPIO_PinSpeed = GPIO_SPEED_FAST;
 80002f6:	2302      	movs	r3, #2
 80002f8:	72bb      	strb	r3, [r7, #10]
    I2CPins.GPIO_PinConfig.GPIO_PinAltFunMode = 4;
 80002fa:	2304      	movs	r3, #4
 80002fc:	737b      	strb	r3, [r7, #13]

    /* SCL */
    I2CPins.GPIO_PinConfig.GPIO_PinNumber = GPIO_PIN_NO_8;
 80002fe:	2308      	movs	r3, #8
 8000300:	723b      	strb	r3, [r7, #8]
    GPIO_Init(&I2CPins);
 8000302:	1d3b      	adds	r3, r7, #4
 8000304:	4618      	mov	r0, r3
 8000306:	f000 fa39 	bl	800077c <GPIO_Init>

    /* SDA */
    I2CPins.GPIO_PinConfig.GPIO_PinNumber = GPIO_PIN_NO_9;
 800030a:	2309      	movs	r3, #9
 800030c:	723b      	strb	r3, [r7, #8]
    GPIO_Init(&I2CPins);
 800030e:	1d3b      	adds	r3, r7, #4
 8000310:	4618      	mov	r0, r3
 8000312:	f000 fa33 	bl	800077c <GPIO_Init>
}
 8000316:	bf00      	nop
 8000318:	3710      	adds	r7, #16
 800031a:	46bd      	mov	sp, r7
 800031c:	bd80      	pop	{r7, pc}
 800031e:	bf00      	nop
 8000320:	40021000 	.word	0x40021000
 8000324:	48000400 	.word	0x48000400

08000328 <I2C1_Inits>:
/*********************************************************************
 *                      I2C INIT
 *********************************************************************/

void I2C1_Inits(void)
{
 8000328:	b580      	push	{r7, lr}
 800032a:	af00      	add	r7, sp, #0
	 I2C1_PCLK_EN();
 800032c:	4b0b      	ldr	r3, [pc, #44]	@ (800035c <I2C1_Inits+0x34>)
 800032e:	6d9b      	ldr	r3, [r3, #88]	@ 0x58
 8000330:	4a0a      	ldr	r2, [pc, #40]	@ (800035c <I2C1_Inits+0x34>)
 8000332:	f443 1300 	orr.w	r3, r3, #2097152	@ 0x200000
 8000336:	6593      	str	r3, [r2, #88]	@ 0x58

    I2C1Handle.pI2Cx = I2C1;
 8000338:	4b09      	ldr	r3, [pc, #36]	@ (8000360 <I2C1_Inits+0x38>)
 800033a:	4a0a      	ldr	r2, [pc, #40]	@ (8000364 <I2C1_Inits+0x3c>)
 800033c:	601a      	str	r2, [r3, #0]

    I2C1Handle.I2C_Config.I2C_ACKControl = I2C_ACK_ENABLE;
 800033e:	4b08      	ldr	r3, [pc, #32]	@ (8000360 <I2C1_Inits+0x38>)
 8000340:	2201      	movs	r2, #1
 8000342:	725a      	strb	r2, [r3, #9]

    I2C1Handle.I2C_Config.I2C_SCLSpeed =I2C_SCL_SPEED_SM;
 8000344:	4b06      	ldr	r3, [pc, #24]	@ (8000360 <I2C1_Inits+0x38>)
 8000346:	4a08      	ldr	r2, [pc, #32]	@ (8000368 <I2C1_Inits+0x40>)
 8000348:	605a      	str	r2, [r3, #4]

    I2C1Handle.I2C_Config.I2C_DeviceAddress =0x61;
 800034a:	4b05      	ldr	r3, [pc, #20]	@ (8000360 <I2C1_Inits+0x38>)
 800034c:	2261      	movs	r2, #97	@ 0x61
 800034e:	721a      	strb	r2, [r3, #8]

    I2C_Init(&I2C1Handle);
 8000350:	4803      	ldr	r0, [pc, #12]	@ (8000360 <I2C1_Inits+0x38>)
 8000352:	f000 fc79 	bl	8000c48 <I2C_Init>
}
 8000356:	bf00      	nop
 8000358:	bd80      	pop	{r7, pc}
 800035a:	bf00      	nop
 800035c:	40021000 	.word	0x40021000
 8000360:	2000003c 	.word	0x2000003c
 8000364:	40005400 	.word	0x40005400
 8000368:	000186a0 	.word	0x000186a0

0800036c <SPI_ApplicationEventCallback>:
    SPI_SendDataIT(&SPI1Handle, cmd_buf, 4);
}
void SPI_ApplicationEventCallback(
                    SPI_Handle_t *pSPIHandle,
                    uint8_t AppEv)
{
 800036c:	b580      	push	{r7, lr}
 800036e:	b082      	sub	sp, #8
 8000370:	af00      	add	r7, sp, #0
 8000372:	6078      	str	r0, [r7, #4]
 8000374:	460b      	mov	r3, r1
 8000376:	70fb      	strb	r3, [r7, #3]
    if(AppEv == SPI_EVENT_TX_CMPLT)
 8000378:	78fb      	ldrb	r3, [r7, #3]
 800037a:	2b01      	cmp	r3, #1
 800037c:	d138      	bne.n	80003f0 <SPI_ApplicationEventCallback+0x84>
    {
        // READ: command phase complete
        if(FlashState == FLASH_READ_CMD)
 800037e:	4b2a      	ldr	r3, [pc, #168]	@ (8000428 <SPI_ApplicationEventCallback+0xbc>)
 8000380:	781b      	ldrb	r3, [r3, #0]
 8000382:	b2db      	uxtb	r3, r3
 8000384:	2b03      	cmp	r3, #3
 8000386:	d10c      	bne.n	80003a2 <SPI_ApplicationEventCallback+0x36>
        {
            FlashState = FLASH_READ_DATA;
 8000388:	4b27      	ldr	r3, [pc, #156]	@ (8000428 <SPI_ApplicationEventCallback+0xbc>)
 800038a:	2204      	movs	r2, #4
 800038c:	701a      	strb	r2, [r3, #0]

            SPI_ReceiveDataIT(&SPI1Handle,
 800038e:	4b27      	ldr	r3, [pc, #156]	@ (800042c <SPI_ApplicationEventCallback+0xc0>)
 8000390:	681b      	ldr	r3, [r3, #0]
 8000392:	4a27      	ldr	r2, [pc, #156]	@ (8000430 <SPI_ApplicationEventCallback+0xc4>)
 8000394:	8812      	ldrh	r2, [r2, #0]
 8000396:	b292      	uxth	r2, r2
 8000398:	4619      	mov	r1, r3
 800039a:	4826      	ldr	r0, [pc, #152]	@ (8000434 <SPI_ApplicationEventCallback+0xc8>)
 800039c:	f000 f8a9 	bl	80004f2 <SPI_ReceiveDataIT>

    else if(AppEv == SPI_EVENT_OVR_ERR)
    {
        // Handle SPI error
    }
}
 80003a0:	e03d      	b.n	800041e <SPI_ApplicationEventCallback+0xb2>
        else if(FlashState == FLASH_WRITE_CMD)
 80003a2:	4b21      	ldr	r3, [pc, #132]	@ (8000428 <SPI_ApplicationEventCallback+0xbc>)
 80003a4:	781b      	ldrb	r3, [r3, #0]
 80003a6:	b2db      	uxtb	r3, r3
 80003a8:	2b01      	cmp	r3, #1
 80003aa:	d10c      	bne.n	80003c6 <SPI_ApplicationEventCallback+0x5a>
            FlashState = FLASH_WRITE_DATA;
 80003ac:	4b1e      	ldr	r3, [pc, #120]	@ (8000428 <SPI_ApplicationEventCallback+0xbc>)
 80003ae:	2202      	movs	r2, #2
 80003b0:	701a      	strb	r2, [r3, #0]
            SPI_SendDataIT(&SPI1Handle,
 80003b2:	4b21      	ldr	r3, [pc, #132]	@ (8000438 <SPI_ApplicationEventCallback+0xcc>)
 80003b4:	681b      	ldr	r3, [r3, #0]
 80003b6:	4a21      	ldr	r2, [pc, #132]	@ (800043c <SPI_ApplicationEventCallback+0xd0>)
 80003b8:	8812      	ldrh	r2, [r2, #0]
 80003ba:	b292      	uxth	r2, r2
 80003bc:	4619      	mov	r1, r3
 80003be:	481d      	ldr	r0, [pc, #116]	@ (8000434 <SPI_ApplicationEventCallback+0xc8>)
 80003c0:	f000 f86b 	bl	800049a <SPI_SendDataIT>
}
 80003c4:	e02b      	b.n	800041e <SPI_ApplicationEventCallback+0xb2>
        else if(FlashState == FLASH_WRITE_DATA)
 80003c6:	4b18      	ldr	r3, [pc, #96]	@ (8000428 <SPI_ApplicationEventCallback+0xbc>)
 80003c8:	781b      	ldrb	r3, [r3, #0]
 80003ca:	b2db      	uxtb	r3, r3
 80003cc:	2b02      	cmp	r3, #2
 80003ce:	d126      	bne.n	800041e <SPI_ApplicationEventCallback+0xb2>
            while(SPI1->SR & (1 << SPI_SR_BUSY));
 80003d0:	bf00      	nop
 80003d2:	4b1b      	ldr	r3, [pc, #108]	@ (8000440 <SPI_ApplicationEventCallback+0xd4>)
 80003d4:	689b      	ldr	r3, [r3, #8]
 80003d6:	f003 0380 	and.w	r3, r3, #128	@ 0x80
 80003da:	2b00      	cmp	r3, #0
 80003dc:	d1f9      	bne.n	80003d2 <SPI_ApplicationEventCallback+0x66>
            CS_HIGH();
 80003de:	2201      	movs	r2, #1
 80003e0:	2106      	movs	r1, #6
 80003e2:	4818      	ldr	r0, [pc, #96]	@ (8000444 <SPI_ApplicationEventCallback+0xd8>)
 80003e4:	f000 fb84 	bl	8000af0 <GPIO_WriteToOutputPin>
            FlashState = FLASH_IDLE;
 80003e8:	4b0f      	ldr	r3, [pc, #60]	@ (8000428 <SPI_ApplicationEventCallback+0xbc>)
 80003ea:	2200      	movs	r2, #0
 80003ec:	701a      	strb	r2, [r3, #0]
}
 80003ee:	e016      	b.n	800041e <SPI_ApplicationEventCallback+0xb2>
    else if(AppEv == SPI_EVENT_RX_CMPLT)
 80003f0:	78fb      	ldrb	r3, [r7, #3]
 80003f2:	2b02      	cmp	r3, #2
 80003f4:	d113      	bne.n	800041e <SPI_ApplicationEventCallback+0xb2>
        if(FlashState == FLASH_READ_DATA)
 80003f6:	4b0c      	ldr	r3, [pc, #48]	@ (8000428 <SPI_ApplicationEventCallback+0xbc>)
 80003f8:	781b      	ldrb	r3, [r3, #0]
 80003fa:	b2db      	uxtb	r3, r3
 80003fc:	2b04      	cmp	r3, #4
 80003fe:	d10e      	bne.n	800041e <SPI_ApplicationEventCallback+0xb2>
            while(SPI1->SR & (1 << SPI_SR_BUSY));
 8000400:	bf00      	nop
 8000402:	4b0f      	ldr	r3, [pc, #60]	@ (8000440 <SPI_ApplicationEventCallback+0xd4>)
 8000404:	689b      	ldr	r3, [r3, #8]
 8000406:	f003 0380 	and.w	r3, r3, #128	@ 0x80
 800040a:	2b00      	cmp	r3, #0
 800040c:	d1f9      	bne.n	8000402 <SPI_ApplicationEventCallback+0x96>
            CS_HIGH();
 800040e:	2201      	movs	r2, #1
 8000410:	2106      	movs	r1, #6
 8000412:	480c      	ldr	r0, [pc, #48]	@ (8000444 <SPI_ApplicationEventCallback+0xd8>)
 8000414:	f000 fb6c 	bl	8000af0 <GPIO_WriteToOutputPin>
            FlashState = FLASH_IDLE;
 8000418:	4b03      	ldr	r3, [pc, #12]	@ (8000428 <SPI_ApplicationEventCallback+0xbc>)
 800041a:	2200      	movs	r2, #0
 800041c:	701a      	strb	r2, [r3, #0]
}
 800041e:	bf00      	nop
 8000420:	3708      	adds	r7, #8
 8000422:	46bd      	mov	sp, r7
 8000424:	bd80      	pop	{r7, pc}
 8000426:	bf00      	nop
 8000428:	2000005c 	.word	0x2000005c
 800042c:	20000064 	.word	0x20000064
 8000430:	20000068 	.word	0x20000068
 8000434:	2000001c 	.word	0x2000001c
 8000438:	20000060 	.word	0x20000060
 800043c:	2000006a 	.word	0x2000006a
 8000440:	40013000 	.word	0x40013000
 8000444:	48000400 	.word	0x48000400

08000448 <Reset_Handler>:

  .section .text.Reset_Handler
  .weak Reset_Handler
  .type Reset_Handler, %function
Reset_Handler:
  ldr   r0, =_estack
 8000448:	480d      	ldr	r0, [pc, #52]	@ (8000480 <LoopForever+0x2>)
  mov   sp, r0          /* set stack pointer */
 800044a:	4685      	mov	sp, r0
/* Call the clock system initialization function.*/
  bl  SystemInit
 800044c:	f3af 8000 	nop.w

/* Copy the data segment initializers from flash to SRAM */
  ldr r0, =_sdata
 8000450:	480c      	ldr	r0, [pc, #48]	@ (8000484 <LoopForever+0x6>)
  ldr r1, =_edata
 8000452:	490d      	ldr	r1, [pc, #52]	@ (8000488 <LoopForever+0xa>)
  ldr r2, =_sidata
 8000454:	4a0d      	ldr	r2, [pc, #52]	@ (800048c <LoopForever+0xe>)
  movs r3, #0
 8000456:	2300      	movs	r3, #0
  b LoopCopyDataInit
 8000458:	e002      	b.n	8000460 <LoopCopyDataInit>

0800045a <CopyDataInit>:

CopyDataInit:
  ldr r4, [r2, r3]
 800045a:	58d4      	ldr	r4, [r2, r3]
  str r4, [r0, r3]
 800045c:	50c4      	str	r4, [r0, r3]
  adds r3, r3, #4
 800045e:	3304      	adds	r3, #4

08000460 <LoopCopyDataInit>:

LoopCopyDataInit:
  adds r4, r0, r3
 8000460:	18c4      	adds	r4, r0, r3
  cmp r4, r1
 8000462:	428c      	cmp	r4, r1
  bcc CopyDataInit
 8000464:	d3f9      	bcc.n	800045a <CopyDataInit>

/* Zero fill the bss segment. */
  ldr r2, =_sbss
 8000466:	4a0a      	ldr	r2, [pc, #40]	@ (8000490 <LoopForever+0x12>)
  ldr r4, =_ebss
 8000468:	4c0a      	ldr	r4, [pc, #40]	@ (8000494 <LoopForever+0x16>)
  movs r3, #0
 800046a:	2300      	movs	r3, #0
  b LoopFillZerobss
 800046c:	e001      	b.n	8000472 <LoopFillZerobss>

0800046e <FillZerobss>:

FillZerobss:
  str  r3, [r2]
 800046e:	6013      	str	r3, [r2, #0]
  adds r2, r2, #4
 8000470:	3204      	adds	r2, #4

08000472 <LoopFillZerobss>:

LoopFillZerobss:
  cmp r2, r4
 8000472:	42a2      	cmp	r2, r4
  bcc FillZerobss
 8000474:	d3fb      	bcc.n	800046e <FillZerobss>


/* Call static constructors */
  bl __libc_init_array
 8000476:	f000 fd75 	bl	8000f64 <__libc_init_array>
/* Call the application's entry point.*/

  bl main
 800047a:	f7ff febb 	bl	80001f4 <main>

0800047e <LoopForever>:

LoopForever:
  b LoopForever
 800047e:	e7fe      	b.n	800047e <LoopForever>
  ldr   r0, =_estack
 8000480:	20018000 	.word	0x20018000
  ldr r0, =_sdata
 8000484:	20000000 	.word	0x20000000
  ldr r1, =_edata
 8000488:	20000000 	.word	0x20000000
  ldr r2, =_sidata
 800048c:	08000fcc 	.word	0x08000fcc
  ldr r2, =_sbss
 8000490:	20000000 	.word	0x20000000
  ldr r4, =_ebss
 8000494:	20000070 	.word	0x20000070

08000498 <ADC1_2_IRQHandler>:
 * @retval : None
*/
  .section .text.Default_Handler,"ax",%progbits
Default_Handler:
Infinite_Loop:
  b Infinite_Loop
 8000498:	e7fe      	b.n	8000498 <ADC1_2_IRQHandler>

0800049a <SPI_SendDataIT>:
        pSPIx->CR1 &= ~(1 << SPI_CR1_SSI);
    }
}

uint8_t SPI_SendDataIT(SPI_Handle_t *pSPIHandle,uint8_t *pTxBuffer,uint32_t Len)
{
 800049a:	b480      	push	{r7}
 800049c:	b087      	sub	sp, #28
 800049e:	af00      	add	r7, sp, #0
 80004a0:	60f8      	str	r0, [r7, #12]
 80004a2:	60b9      	str	r1, [r7, #8]
 80004a4:	607a      	str	r2, [r7, #4]
	//1 . save the tx buffere address and len information in some global variables

    uint8_t state = pSPIHandle->TxState;
 80004a6:	68fb      	ldr	r3, [r7, #12]
 80004a8:	7f1b      	ldrb	r3, [r3, #28]
 80004aa:	75fb      	strb	r3, [r7, #23]

    if(state != SPI_BUSY_IN_TX)
 80004ac:	7dfb      	ldrb	r3, [r7, #23]
 80004ae:	2b02      	cmp	r3, #2
 80004b0:	d018      	beq.n	80004e4 <SPI_SendDataIT+0x4a>
    {
        pSPIHandle->pTxBuffer = pTxBuffer;
 80004b2:	68fb      	ldr	r3, [r7, #12]
 80004b4:	68ba      	ldr	r2, [r7, #8]
 80004b6:	60da      	str	r2, [r3, #12]
        pSPIHandle->TxLen = Len;
 80004b8:	68fb      	ldr	r3, [r7, #12]
 80004ba:	687a      	ldr	r2, [r7, #4]
 80004bc:	611a      	str	r2, [r3, #16]
        pSPIHandle->TxState = SPI_BUSY_IN_TX;
 80004be:	68fb      	ldr	r3, [r7, #12]
 80004c0:	2202      	movs	r2, #2
 80004c2:	771a      	strb	r2, [r3, #28]

        // Enable TXE interrupt
        pSPIHandle->pSPIx->CR2 |= (1 << SPI_CR2_TXEIE);
 80004c4:	68fb      	ldr	r3, [r7, #12]
 80004c6:	681b      	ldr	r3, [r3, #0]
 80004c8:	685a      	ldr	r2, [r3, #4]
 80004ca:	68fb      	ldr	r3, [r7, #12]
 80004cc:	681b      	ldr	r3, [r3, #0]
 80004ce:	f042 0280 	orr.w	r2, r2, #128	@ 0x80
 80004d2:	605a      	str	r2, [r3, #4]
        pSPIHandle->pSPIx->CR2 |= (1 << SPI_CR2_ERRIE);
 80004d4:	68fb      	ldr	r3, [r7, #12]
 80004d6:	681b      	ldr	r3, [r3, #0]
 80004d8:	685a      	ldr	r2, [r3, #4]
 80004da:	68fb      	ldr	r3, [r7, #12]
 80004dc:	681b      	ldr	r3, [r3, #0]
 80004de:	f042 0220 	orr.w	r2, r2, #32
 80004e2:	605a      	str	r2, [r3, #4]
    }

    return state;
 80004e4:	7dfb      	ldrb	r3, [r7, #23]
}
 80004e6:	4618      	mov	r0, r3
 80004e8:	371c      	adds	r7, #28
 80004ea:	46bd      	mov	sp, r7
 80004ec:	f85d 7b04 	ldr.w	r7, [sp], #4
 80004f0:	4770      	bx	lr

080004f2 <SPI_ReceiveDataIT>:
uint8_t SPI_ReceiveDataIT(SPI_Handle_t *pSPIHandle,uint8_t *pRxBuffer,uint32_t Len)
{
 80004f2:	b480      	push	{r7}
 80004f4:	b087      	sub	sp, #28
 80004f6:	af00      	add	r7, sp, #0
 80004f8:	60f8      	str	r0, [r7, #12]
 80004fa:	60b9      	str	r1, [r7, #8]
 80004fc:	607a      	str	r2, [r7, #4]
    uint8_t state = pSPIHandle->RxState;
 80004fe:	68fb      	ldr	r3, [r7, #12]
 8000500:	7f5b      	ldrb	r3, [r3, #29]
 8000502:	75fb      	strb	r3, [r7, #23]

    if(state != SPI_BUSY_IN_RX)
 8000504:	7dfb      	ldrb	r3, [r7, #23]
 8000506:	2b01      	cmp	r3, #1
 8000508:	d01d      	beq.n	8000546 <SPI_ReceiveDataIT+0x54>
    {
        pSPIHandle->pRxBuffer = pRxBuffer;
 800050a:	68fb      	ldr	r3, [r7, #12]
 800050c:	68ba      	ldr	r2, [r7, #8]
 800050e:	615a      	str	r2, [r3, #20]
        pSPIHandle->RxLen = Len;
 8000510:	68fb      	ldr	r3, [r7, #12]
 8000512:	687a      	ldr	r2, [r7, #4]
 8000514:	619a      	str	r2, [r3, #24]
        pSPIHandle->RxState = SPI_BUSY_IN_RX;
 8000516:	68fb      	ldr	r3, [r7, #12]
 8000518:	2201      	movs	r2, #1
 800051a:	775a      	strb	r2, [r3, #29]

        // Enable RXNE interrupt
        pSPIHandle->pSPIx->CR2 |= (1 << SPI_CR2_RXNEIE);
 800051c:	68fb      	ldr	r3, [r7, #12]
 800051e:	681b      	ldr	r3, [r3, #0]
 8000520:	685a      	ldr	r2, [r3, #4]
 8000522:	68fb      	ldr	r3, [r7, #12]
 8000524:	681b      	ldr	r3, [r3, #0]
 8000526:	f042 0240 	orr.w	r2, r2, #64	@ 0x40
 800052a:	605a      	str	r2, [r3, #4]
        pSPIHandle->pSPIx->CR2 |= (1 << SPI_CR2_ERRIE);
 800052c:	68fb      	ldr	r3, [r7, #12]
 800052e:	681b      	ldr	r3, [r3, #0]
 8000530:	685a      	ldr	r2, [r3, #4]
 8000532:	68fb      	ldr	r3, [r7, #12]
 8000534:	681b      	ldr	r3, [r3, #0]
 8000536:	f042 0220 	orr.w	r2, r2, #32
 800053a:	605a      	str	r2, [r3, #4]
        // Generate first dummy byte
        *((volatile uint8_t*)&pSPIHandle->pSPIx->DR) = 0xFF;
 800053c:	68fb      	ldr	r3, [r7, #12]
 800053e:	681b      	ldr	r3, [r3, #0]
 8000540:	330c      	adds	r3, #12
 8000542:	22ff      	movs	r2, #255	@ 0xff
 8000544:	701a      	strb	r2, [r3, #0]
    }

    return state;
 8000546:	7dfb      	ldrb	r3, [r7, #23]
}
 8000548:	4618      	mov	r0, r3
 800054a:	371c      	adds	r7, #28
 800054c:	46bd      	mov	sp, r7
 800054e:	f85d 7b04 	ldr.w	r7, [sp], #4
 8000552:	4770      	bx	lr

08000554 <spi_txe_interrupt_handle>:
static void spi_txe_interrupt_handle(SPI_Handle_t *pSPIHandle)
{
 8000554:	b580      	push	{r7, lr}
 8000556:	b084      	sub	sp, #16
 8000558:	af00      	add	r7, sp, #0
 800055a:	6078      	str	r0, [r7, #4]
    volatile uint8_t temp;

    if(pSPIHandle->TxLen > 0)
 800055c:	687b      	ldr	r3, [r7, #4]
 800055e:	691b      	ldr	r3, [r3, #16]
 8000560:	2b00      	cmp	r3, #0
 8000562:	d020      	beq.n	80005a6 <spi_txe_interrupt_handle+0x52>
    {
        // Send one byte
        *((volatile uint8_t*)&pSPIHandle->pSPIx->DR) =
                *(pSPIHandle->pTxBuffer);
 8000564:	687b      	ldr	r3, [r7, #4]
 8000566:	68da      	ldr	r2, [r3, #12]
        *((volatile uint8_t*)&pSPIHandle->pSPIx->DR) =
 8000568:	687b      	ldr	r3, [r7, #4]
 800056a:	681b      	ldr	r3, [r3, #0]
 800056c:	330c      	adds	r3, #12
                *(pSPIHandle->pTxBuffer);
 800056e:	7812      	ldrb	r2, [r2, #0]
 8000570:	b2d2      	uxtb	r2, r2
        *((volatile uint8_t*)&pSPIHandle->pSPIx->DR) =
 8000572:	701a      	strb	r2, [r3, #0]

        // Wait until RXNE set
        while(!(pSPIHandle->pSPIx->SR & (1 << SPI_SR_RXNE)));
 8000574:	bf00      	nop
 8000576:	687b      	ldr	r3, [r7, #4]
 8000578:	681b      	ldr	r3, [r3, #0]
 800057a:	689b      	ldr	r3, [r3, #8]
 800057c:	f003 0301 	and.w	r3, r3, #1
 8000580:	2b00      	cmp	r3, #0
 8000582:	d0f8      	beq.n	8000576 <spi_txe_interrupt_handle+0x22>

        // Clear dummy received byte
        temp = *((volatile uint8_t*)&pSPIHandle->pSPIx->DR);
 8000584:	687b      	ldr	r3, [r7, #4]
 8000586:	681b      	ldr	r3, [r3, #0]
 8000588:	330c      	adds	r3, #12
 800058a:	781b      	ldrb	r3, [r3, #0]
 800058c:	b2db      	uxtb	r3, r3
 800058e:	73fb      	strb	r3, [r7, #15]

        (void)temp;
 8000590:	7bfb      	ldrb	r3, [r7, #15]

        // Next byte
        pSPIHandle->pTxBuffer++;
 8000592:	687b      	ldr	r3, [r7, #4]
 8000594:	68db      	ldr	r3, [r3, #12]
 8000596:	1c5a      	adds	r2, r3, #1
 8000598:	687b      	ldr	r3, [r7, #4]
 800059a:	60da      	str	r2, [r3, #12]

        // Decrement length
        pSPIHandle->TxLen--;
 800059c:	687b      	ldr	r3, [r7, #4]
 800059e:	691b      	ldr	r3, [r3, #16]
 80005a0:	1e5a      	subs	r2, r3, #1
 80005a2:	687b      	ldr	r3, [r7, #4]
 80005a4:	611a      	str	r2, [r3, #16]
    }

    // Transmission complete
    if(pSPIHandle->TxLen == 0)
 80005a6:	687b      	ldr	r3, [r7, #4]
 80005a8:	691b      	ldr	r3, [r3, #16]
 80005aa:	2b00      	cmp	r3, #0
 80005ac:	d11c      	bne.n	80005e8 <spi_txe_interrupt_handle+0x94>
    {
        // Wait until SPI not busy
        while(pSPIHandle->pSPIx->SR & (1 << SPI_SR_BUSY));
 80005ae:	bf00      	nop
 80005b0:	687b      	ldr	r3, [r7, #4]
 80005b2:	681b      	ldr	r3, [r3, #0]
 80005b4:	689b      	ldr	r3, [r3, #8]
 80005b6:	f003 0380 	and.w	r3, r3, #128	@ 0x80
 80005ba:	2b00      	cmp	r3, #0
 80005bc:	d1f8      	bne.n	80005b0 <spi_txe_interrupt_handle+0x5c>

        // Disable TXE interrupt
        pSPIHandle->pSPIx->CR2 &= ~(1 << SPI_CR2_TXEIE);
 80005be:	687b      	ldr	r3, [r7, #4]
 80005c0:	681b      	ldr	r3, [r3, #0]
 80005c2:	685a      	ldr	r2, [r3, #4]
 80005c4:	687b      	ldr	r3, [r7, #4]
 80005c6:	681b      	ldr	r3, [r3, #0]
 80005c8:	f022 0280 	bic.w	r2, r2, #128	@ 0x80
 80005cc:	605a      	str	r2, [r3, #4]

        pSPIHandle->TxLen = 0;
 80005ce:	687b      	ldr	r3, [r7, #4]
 80005d0:	2200      	movs	r2, #0
 80005d2:	611a      	str	r2, [r3, #16]
        pSPIHandle->pTxBuffer = (volatile uint8_t *)0;
 80005d4:	687b      	ldr	r3, [r7, #4]
 80005d6:	2200      	movs	r2, #0
 80005d8:	60da      	str	r2, [r3, #12]
        // Reset state
        pSPIHandle->TxState = SPI_READY;
 80005da:	687b      	ldr	r3, [r7, #4]
 80005dc:	2200      	movs	r2, #0
 80005de:	771a      	strb	r2, [r3, #28]
        SPI_ApplicationEventCallback(pSPIHandle,SPI_EVENT_TX_CMPLT);
 80005e0:	2101      	movs	r1, #1
 80005e2:	6878      	ldr	r0, [r7, #4]
 80005e4:	f7ff fec2 	bl	800036c <SPI_ApplicationEventCallback>
    }
}
 80005e8:	bf00      	nop
 80005ea:	3710      	adds	r7, #16
 80005ec:	46bd      	mov	sp, r7
 80005ee:	bd80      	pop	{r7, pc}

080005f0 <spi_rxne_interrupt_handle>:
static void spi_rxne_interrupt_handle(SPI_Handle_t *pSPIHandle)
{
 80005f0:	b580      	push	{r7, lr}
 80005f2:	b082      	sub	sp, #8
 80005f4:	af00      	add	r7, sp, #0
 80005f6:	6078      	str	r0, [r7, #4]
    if(pSPIHandle->RxLen > 0)
 80005f8:	687b      	ldr	r3, [r7, #4]
 80005fa:	699b      	ldr	r3, [r3, #24]
 80005fc:	2b00      	cmp	r3, #0
 80005fe:	d02b      	beq.n	8000658 <spi_rxne_interrupt_handle+0x68>
    {
        // Read received byte from DR
        *(pSPIHandle->pRxBuffer) =
                *((volatile uint8_t*)&pSPIHandle->pSPIx->DR);
 8000600:	687b      	ldr	r3, [r7, #4]
 8000602:	681b      	ldr	r3, [r3, #0]
 8000604:	f103 020c 	add.w	r2, r3, #12
        *(pSPIHandle->pRxBuffer) =
 8000608:	687b      	ldr	r3, [r7, #4]
 800060a:	695b      	ldr	r3, [r3, #20]
                *((volatile uint8_t*)&pSPIHandle->pSPIx->DR);
 800060c:	7812      	ldrb	r2, [r2, #0]
 800060e:	b2d2      	uxtb	r2, r2
        *(pSPIHandle->pRxBuffer) =
 8000610:	701a      	strb	r2, [r3, #0]

        // Move buffer pointer
        pSPIHandle->pRxBuffer++;
 8000612:	687b      	ldr	r3, [r7, #4]
 8000614:	695b      	ldr	r3, [r3, #20]
 8000616:	1c5a      	adds	r2, r3, #1
 8000618:	687b      	ldr	r3, [r7, #4]
 800061a:	615a      	str	r2, [r3, #20]

        // Decrement remaining length
        pSPIHandle->RxLen--;
 800061c:	687b      	ldr	r3, [r7, #4]
 800061e:	699b      	ldr	r3, [r3, #24]
 8000620:	1e5a      	subs	r2, r3, #1
 8000622:	687b      	ldr	r3, [r7, #4]
 8000624:	619a      	str	r2, [r3, #24]

        // Generate next clock if more data needed
        if(pSPIHandle->RxLen > 0)
 8000626:	687b      	ldr	r3, [r7, #4]
 8000628:	699b      	ldr	r3, [r3, #24]
 800062a:	2b00      	cmp	r3, #0
 800062c:	d014      	beq.n	8000658 <spi_rxne_interrupt_handle+0x68>
        {
            // Wait until TXE = 1
            while(!(pSPIHandle->pSPIx->SR & (1 << SPI_SR_TXE)));
 800062e:	bf00      	nop
 8000630:	687b      	ldr	r3, [r7, #4]
 8000632:	681b      	ldr	r3, [r3, #0]
 8000634:	689b      	ldr	r3, [r3, #8]
 8000636:	f003 0302 	and.w	r3, r3, #2
 800063a:	2b00      	cmp	r3, #0
 800063c:	d0f8      	beq.n	8000630 <spi_rxne_interrupt_handle+0x40>

            // Send dummy byte
            *((volatile uint8_t*)&pSPIHandle->pSPIx->DR) = 0xFF;
 800063e:	687b      	ldr	r3, [r7, #4]
 8000640:	681b      	ldr	r3, [r3, #0]
 8000642:	330c      	adds	r3, #12
 8000644:	22ff      	movs	r2, #255	@ 0xff
 8000646:	701a      	strb	r2, [r3, #0]
            while(!(pSPIHandle->pSPIx->SR & (1 << SPI_SR_RXNE)));
 8000648:	bf00      	nop
 800064a:	687b      	ldr	r3, [r7, #4]
 800064c:	681b      	ldr	r3, [r3, #0]
 800064e:	689b      	ldr	r3, [r3, #8]
 8000650:	f003 0301 	and.w	r3, r3, #1
 8000654:	2b00      	cmp	r3, #0
 8000656:	d0f8      	beq.n	800064a <spi_rxne_interrupt_handle+0x5a>
        }
    }

    // Reception complete
    if(pSPIHandle->RxLen == 0)
 8000658:	687b      	ldr	r3, [r7, #4]
 800065a:	699b      	ldr	r3, [r3, #24]
 800065c:	2b00      	cmp	r3, #0
 800065e:	d11c      	bne.n	800069a <spi_rxne_interrupt_handle+0xaa>
    {
        // Wait until SPI not busy
        while(pSPIHandle->pSPIx->SR & (1 << SPI_SR_BUSY));
 8000660:	bf00      	nop
 8000662:	687b      	ldr	r3, [r7, #4]
 8000664:	681b      	ldr	r3, [r3, #0]
 8000666:	689b      	ldr	r3, [r3, #8]
 8000668:	f003 0380 	and.w	r3, r3, #128	@ 0x80
 800066c:	2b00      	cmp	r3, #0
 800066e:	d1f8      	bne.n	8000662 <spi_rxne_interrupt_handle+0x72>

        // Disable RXNE interrupt
        pSPIHandle->pSPIx->CR2 &= ~(1 << SPI_CR2_RXNEIE);
 8000670:	687b      	ldr	r3, [r7, #4]
 8000672:	681b      	ldr	r3, [r3, #0]
 8000674:	685a      	ldr	r2, [r3, #4]
 8000676:	687b      	ldr	r3, [r7, #4]
 8000678:	681b      	ldr	r3, [r3, #0]
 800067a:	f022 0240 	bic.w	r2, r2, #64	@ 0x40
 800067e:	605a      	str	r2, [r3, #4]
        // Clear handle members
        pSPIHandle->RxLen = 0;
 8000680:	687b      	ldr	r3, [r7, #4]
 8000682:	2200      	movs	r2, #0
 8000684:	619a      	str	r2, [r3, #24]
        pSPIHandle->pRxBuffer = (volatile uint8_t *)0;
 8000686:	687b      	ldr	r3, [r7, #4]
 8000688:	2200      	movs	r2, #0
 800068a:	615a      	str	r2, [r3, #20]
        // Reset RX state
        pSPIHandle->RxState = SPI_READY;
 800068c:	687b      	ldr	r3, [r7, #4]
 800068e:	2200      	movs	r2, #0
 8000690:	775a      	strb	r2, [r3, #29]
        // Application callback
        SPI_ApplicationEventCallback(pSPIHandle, SPI_EVENT_RX_CMPLT);
 8000692:	2102      	movs	r1, #2
 8000694:	6878      	ldr	r0, [r7, #4]
 8000696:	f7ff fe69 	bl	800036c <SPI_ApplicationEventCallback>
    }
}
 800069a:	bf00      	nop
 800069c:	3708      	adds	r7, #8
 800069e:	46bd      	mov	sp, r7
 80006a0:	bd80      	pop	{r7, pc}

080006a2 <spi_ovr_interrupt_handle>:
static void spi_ovr_interrupt_handle(SPI_Handle_t *pSPIHandle)
{
 80006a2:	b580      	push	{r7, lr}
 80006a4:	b084      	sub	sp, #16
 80006a6:	af00      	add	r7, sp, #0
 80006a8:	6078      	str	r0, [r7, #4]
    volatile uint8_t temp;

    // Clear OVR only if not busy in TX
    if((pSPIHandle->TxState != SPI_BUSY_IN_TX) &&
 80006aa:	687b      	ldr	r3, [r7, #4]
 80006ac:	7f1b      	ldrb	r3, [r3, #28]
 80006ae:	2b02      	cmp	r3, #2
 80006b0:	d00f      	beq.n	80006d2 <spi_ovr_interrupt_handle+0x30>
           (pSPIHandle->RxState != SPI_BUSY_IN_RX))
 80006b2:	687b      	ldr	r3, [r7, #4]
 80006b4:	7f5b      	ldrb	r3, [r3, #29]
    if((pSPIHandle->TxState != SPI_BUSY_IN_TX) &&
 80006b6:	2b01      	cmp	r3, #1
 80006b8:	d00b      	beq.n	80006d2 <spi_ovr_interrupt_handle+0x30>
        {
        temp = *((volatile uint8_t*)&pSPIHandle->pSPIx->DR);
 80006ba:	687b      	ldr	r3, [r7, #4]
 80006bc:	681b      	ldr	r3, [r3, #0]
 80006be:	330c      	adds	r3, #12
 80006c0:	781b      	ldrb	r3, [r3, #0]
 80006c2:	b2db      	uxtb	r3, r3
 80006c4:	73fb      	strb	r3, [r7, #15]
        temp = pSPIHandle->pSPIx->SR;
 80006c6:	687b      	ldr	r3, [r7, #4]
 80006c8:	681b      	ldr	r3, [r3, #0]
 80006ca:	689b      	ldr	r3, [r3, #8]
 80006cc:	b2db      	uxtb	r3, r3
 80006ce:	73fb      	strb	r3, [r7, #15]

        (void)temp;
 80006d0:	7bfb      	ldrb	r3, [r7, #15]
    }
    //2.inform the application
    SPI_ApplicationEventCallback(pSPIHandle, SPI_EVENT_OVR_ERR);
 80006d2:	2103      	movs	r1, #3
 80006d4:	6878      	ldr	r0, [r7, #4]
 80006d6:	f7ff fe49 	bl	800036c <SPI_ApplicationEventCallback>
}
 80006da:	bf00      	nop
 80006dc:	3710      	adds	r7, #16
 80006de:	46bd      	mov	sp, r7
 80006e0:	bd80      	pop	{r7, pc}

080006e2 <SPI_IRQHandling>:

void SPI_IRQHandling(SPI_Handle_t *pHandle){
 80006e2:	b580      	push	{r7, lr}
 80006e4:	b084      	sub	sp, #16
 80006e6:	af00      	add	r7, sp, #0
 80006e8:	6078      	str	r0, [r7, #4]
	  uint8_t temp1,temp2;

	    temp1 = pHandle->pSPIx->SR & (1 << SPI_SR_TXE);
 80006ea:	687b      	ldr	r3, [r7, #4]
 80006ec:	681b      	ldr	r3, [r3, #0]
 80006ee:	689b      	ldr	r3, [r3, #8]
 80006f0:	b2db      	uxtb	r3, r3
 80006f2:	f003 0302 	and.w	r3, r3, #2
 80006f6:	73fb      	strb	r3, [r7, #15]
	    temp2 = pHandle->pSPIx->CR2 & (1 << SPI_CR2_TXEIE);
 80006f8:	687b      	ldr	r3, [r7, #4]
 80006fa:	681b      	ldr	r3, [r3, #0]
 80006fc:	685b      	ldr	r3, [r3, #4]
 80006fe:	b2db      	uxtb	r3, r3
 8000700:	f023 037f 	bic.w	r3, r3, #127	@ 0x7f
 8000704:	73bb      	strb	r3, [r7, #14]

	    if(temp1 && temp2)
 8000706:	7bfb      	ldrb	r3, [r7, #15]
 8000708:	2b00      	cmp	r3, #0
 800070a:	d005      	beq.n	8000718 <SPI_IRQHandling+0x36>
 800070c:	7bbb      	ldrb	r3, [r7, #14]
 800070e:	2b00      	cmp	r3, #0
 8000710:	d002      	beq.n	8000718 <SPI_IRQHandling+0x36>
	    {
	        spi_txe_interrupt_handle(pHandle);
 8000712:	6878      	ldr	r0, [r7, #4]
 8000714:	f7ff ff1e 	bl	8000554 <spi_txe_interrupt_handle>
	    }
	    // RXNE
	       temp1 = pHandle->pSPIx->SR & (1 << SPI_SR_RXNE);
 8000718:	687b      	ldr	r3, [r7, #4]
 800071a:	681b      	ldr	r3, [r3, #0]
 800071c:	689b      	ldr	r3, [r3, #8]
 800071e:	b2db      	uxtb	r3, r3
 8000720:	f003 0301 	and.w	r3, r3, #1
 8000724:	73fb      	strb	r3, [r7, #15]
	       temp2 = pHandle->pSPIx->CR2 & (1 << SPI_CR2_RXNEIE);
 8000726:	687b      	ldr	r3, [r7, #4]
 8000728:	681b      	ldr	r3, [r3, #0]
 800072a:	685b      	ldr	r3, [r3, #4]
 800072c:	b2db      	uxtb	r3, r3
 800072e:	f003 0340 	and.w	r3, r3, #64	@ 0x40
 8000732:	73bb      	strb	r3, [r7, #14]

	       if(temp1 && temp2)
 8000734:	7bfb      	ldrb	r3, [r7, #15]
 8000736:	2b00      	cmp	r3, #0
 8000738:	d005      	beq.n	8000746 <SPI_IRQHandling+0x64>
 800073a:	7bbb      	ldrb	r3, [r7, #14]
 800073c:	2b00      	cmp	r3, #0
 800073e:	d002      	beq.n	8000746 <SPI_IRQHandling+0x64>
	       {
	           spi_rxne_interrupt_handle(pHandle);
 8000740:	6878      	ldr	r0, [r7, #4]
 8000742:	f7ff ff55 	bl	80005f0 <spi_rxne_interrupt_handle>
	       }
	       // OVR
	       temp1 = pHandle->pSPIx->SR & (1 << SPI_SR_OVR);
 8000746:	687b      	ldr	r3, [r7, #4]
 8000748:	681b      	ldr	r3, [r3, #0]
 800074a:	689b      	ldr	r3, [r3, #8]
 800074c:	b2db      	uxtb	r3, r3
 800074e:	f003 0340 	and.w	r3, r3, #64	@ 0x40
 8000752:	73fb      	strb	r3, [r7, #15]
	       temp2 = pHandle->pSPIx->CR2 & (1 << SPI_CR2_ERRIE);
 8000754:	687b      	ldr	r3, [r7, #4]
 8000756:	681b      	ldr	r3, [r3, #0]
 8000758:	685b      	ldr	r3, [r3, #4]
 800075a:	b2db      	uxtb	r3, r3
 800075c:	f003 0320 	and.w	r3, r3, #32
 8000760:	73bb      	strb	r3, [r7, #14]

	       if(temp1 && temp2)
 8000762:	7bfb      	ldrb	r3, [r7, #15]
 8000764:	2b00      	cmp	r3, #0
 8000766:	d005      	beq.n	8000774 <SPI_IRQHandling+0x92>
 8000768:	7bbb      	ldrb	r3, [r7, #14]
 800076a:	2b00      	cmp	r3, #0
 800076c:	d002      	beq.n	8000774 <SPI_IRQHandling+0x92>
	       {
	           spi_ovr_interrupt_handle(pHandle);
 800076e:	6878      	ldr	r0, [r7, #4]
 8000770:	f7ff ff97 	bl	80006a2 <spi_ovr_interrupt_handle>
	       }
}
 8000774:	bf00      	nop
 8000776:	3710      	adds	r7, #16
 8000778:	46bd      	mov	sp, r7
 800077a:	bd80      	pop	{r7, pc}

0800077c <GPIO_Init>:
							GPIOI_PCLK_DI();
	}
}

// Init and De-init
void GPIO_Init(GPIO_Handle_t *pGPIOHandle){
 800077c:	b480      	push	{r7}
 800077e:	b087      	sub	sp, #28
 8000780:	af00      	add	r7, sp, #0
 8000782:	6078      	str	r0, [r7, #4]
	//1 . Configure the mode of gpio pin
	uint32_t	temp = 0; //temp register
 8000784:	2300      	movs	r3, #0
 8000786:	617b      	str	r3, [r7, #20]
	if(pGPIOHandle->GPIO_PinConfig.GPIO_PinMode <= GPIO_MODE_ANALOG){
 8000788:	687b      	ldr	r3, [r7, #4]
 800078a:	795b      	ldrb	r3, [r3, #5]
 800078c:	2b03      	cmp	r3, #3
 800078e:	d820      	bhi.n	80007d2 <GPIO_Init+0x56>
		temp = (pGPIOHandle->GPIO_PinConfig.GPIO_PinMode << (2 * pGPIOHandle->GPIO_PinConfig.GPIO_PinNumber));
 8000790:	687b      	ldr	r3, [r7, #4]
 8000792:	795b      	ldrb	r3, [r3, #5]
 8000794:	461a      	mov	r2, r3
 8000796:	687b      	ldr	r3, [r7, #4]
 8000798:	791b      	ldrb	r3, [r3, #4]
 800079a:	005b      	lsls	r3, r3, #1
 800079c:	fa02 f303 	lsl.w	r3, r2, r3
 80007a0:	617b      	str	r3, [r7, #20]
		pGPIOHandle->pGPIOx->MODER &= ~(0x3 << (2 * pGPIOHandle->GPIO_PinConfig.GPIO_PinNumber ));
 80007a2:	687b      	ldr	r3, [r7, #4]
 80007a4:	681b      	ldr	r3, [r3, #0]
 80007a6:	681a      	ldr	r2, [r3, #0]
 80007a8:	687b      	ldr	r3, [r7, #4]
 80007aa:	791b      	ldrb	r3, [r3, #4]
 80007ac:	005b      	lsls	r3, r3, #1
 80007ae:	2103      	movs	r1, #3
 80007b0:	fa01 f303 	lsl.w	r3, r1, r3
 80007b4:	43db      	mvns	r3, r3
 80007b6:	4619      	mov	r1, r3
 80007b8:	687b      	ldr	r3, [r7, #4]
 80007ba:	681b      	ldr	r3, [r3, #0]
 80007bc:	400a      	ands	r2, r1
 80007be:	601a      	str	r2, [r3, #0]
		pGPIOHandle->pGPIOx->MODER |= temp;
 80007c0:	687b      	ldr	r3, [r7, #4]
 80007c2:	681b      	ldr	r3, [r3, #0]
 80007c4:	6819      	ldr	r1, [r3, #0]
 80007c6:	687b      	ldr	r3, [r7, #4]
 80007c8:	681b      	ldr	r3, [r3, #0]
 80007ca:	697a      	ldr	r2, [r7, #20]
 80007cc:	430a      	orrs	r2, r1
 80007ce:	601a      	str	r2, [r3, #0]
 80007d0:	e0e8      	b.n	80009a4 <GPIO_Init+0x228>
	}
	else{
		pGPIOHandle->pGPIOx->MODER &= ~(0x3 << (2 * pGPIOHandle->GPIO_PinConfig.GPIO_PinNumber));
 80007d2:	687b      	ldr	r3, [r7, #4]
 80007d4:	681b      	ldr	r3, [r3, #0]
 80007d6:	681a      	ldr	r2, [r3, #0]
 80007d8:	687b      	ldr	r3, [r7, #4]
 80007da:	791b      	ldrb	r3, [r3, #4]
 80007dc:	005b      	lsls	r3, r3, #1
 80007de:	2103      	movs	r1, #3
 80007e0:	fa01 f303 	lsl.w	r3, r1, r3
 80007e4:	43db      	mvns	r3, r3
 80007e6:	4619      	mov	r1, r3
 80007e8:	687b      	ldr	r3, [r7, #4]
 80007ea:	681b      	ldr	r3, [r3, #0]
 80007ec:	400a      	ands	r2, r1
 80007ee:	601a      	str	r2, [r3, #0]
			if(pGPIOHandle->GPIO_PinConfig.GPIO_PinMode == GPIO_MODE_IT_FT){
 80007f0:	687b      	ldr	r3, [r7, #4]
 80007f2:	795b      	ldrb	r3, [r3, #5]
 80007f4:	2b04      	cmp	r3, #4
 80007f6:	d117      	bne.n	8000828 <GPIO_Init+0xac>
				//1. Configure the FTSR
				EXTI->FTSR1 |= (1 << pGPIOHandle->GPIO_PinConfig.GPIO_PinNumber);
 80007f8:	4b47      	ldr	r3, [pc, #284]	@ (8000918 <GPIO_Init+0x19c>)
 80007fa:	68db      	ldr	r3, [r3, #12]
 80007fc:	687a      	ldr	r2, [r7, #4]
 80007fe:	7912      	ldrb	r2, [r2, #4]
 8000800:	4611      	mov	r1, r2
 8000802:	2201      	movs	r2, #1
 8000804:	408a      	lsls	r2, r1
 8000806:	4611      	mov	r1, r2
 8000808:	4a43      	ldr	r2, [pc, #268]	@ (8000918 <GPIO_Init+0x19c>)
 800080a:	430b      	orrs	r3, r1
 800080c:	60d3      	str	r3, [r2, #12]
				// clear the corresponding RTSR bit
				EXTI->RTSR1 &= ~(1 << pGPIOHandle->GPIO_PinConfig.GPIO_PinNumber);
 800080e:	4b42      	ldr	r3, [pc, #264]	@ (8000918 <GPIO_Init+0x19c>)
 8000810:	689b      	ldr	r3, [r3, #8]
 8000812:	687a      	ldr	r2, [r7, #4]
 8000814:	7912      	ldrb	r2, [r2, #4]
 8000816:	4611      	mov	r1, r2
 8000818:	2201      	movs	r2, #1
 800081a:	408a      	lsls	r2, r1
 800081c:	43d2      	mvns	r2, r2
 800081e:	4611      	mov	r1, r2
 8000820:	4a3d      	ldr	r2, [pc, #244]	@ (8000918 <GPIO_Init+0x19c>)
 8000822:	400b      	ands	r3, r1
 8000824:	6093      	str	r3, [r2, #8]
 8000826:	e035      	b.n	8000894 <GPIO_Init+0x118>
			}
			else if(pGPIOHandle->GPIO_PinConfig.GPIO_PinMode == GPIO_MODE_IT_RT){
 8000828:	687b      	ldr	r3, [r7, #4]
 800082a:	795b      	ldrb	r3, [r3, #5]
 800082c:	2b05      	cmp	r3, #5
 800082e:	d117      	bne.n	8000860 <GPIO_Init+0xe4>
				//1. Configure the RTSR
				EXTI->RTSR1 |= (1 << pGPIOHandle->GPIO_PinConfig.GPIO_PinNumber);
 8000830:	4b39      	ldr	r3, [pc, #228]	@ (8000918 <GPIO_Init+0x19c>)
 8000832:	689b      	ldr	r3, [r3, #8]
 8000834:	687a      	ldr	r2, [r7, #4]
 8000836:	7912      	ldrb	r2, [r2, #4]
 8000838:	4611      	mov	r1, r2
 800083a:	2201      	movs	r2, #1
 800083c:	408a      	lsls	r2, r1
 800083e:	4611      	mov	r1, r2
 8000840:	4a35      	ldr	r2, [pc, #212]	@ (8000918 <GPIO_Init+0x19c>)
 8000842:	430b      	orrs	r3, r1
 8000844:	6093      	str	r3, [r2, #8]
				// clear the corresponding RTSR bit
				EXTI->FTSR1 &= ~(1 << pGPIOHandle->GPIO_PinConfig.GPIO_PinNumber);
 8000846:	4b34      	ldr	r3, [pc, #208]	@ (8000918 <GPIO_Init+0x19c>)
 8000848:	68db      	ldr	r3, [r3, #12]
 800084a:	687a      	ldr	r2, [r7, #4]
 800084c:	7912      	ldrb	r2, [r2, #4]
 800084e:	4611      	mov	r1, r2
 8000850:	2201      	movs	r2, #1
 8000852:	408a      	lsls	r2, r1
 8000854:	43d2      	mvns	r2, r2
 8000856:	4611      	mov	r1, r2
 8000858:	4a2f      	ldr	r2, [pc, #188]	@ (8000918 <GPIO_Init+0x19c>)
 800085a:	400b      	ands	r3, r1
 800085c:	60d3      	str	r3, [r2, #12]
 800085e:	e019      	b.n	8000894 <GPIO_Init+0x118>
			}
			else if(pGPIOHandle->GPIO_PinConfig.GPIO_PinMode == GPIO_MODE_IT_RFT){
 8000860:	687b      	ldr	r3, [r7, #4]
 8000862:	795b      	ldrb	r3, [r3, #5]
 8000864:	2b06      	cmp	r3, #6
 8000866:	d115      	bne.n	8000894 <GPIO_Init+0x118>
				//1. Configure the FTSR
				EXTI->RTSR1 |= (1 << pGPIOHandle->GPIO_PinConfig.GPIO_PinNumber);
 8000868:	4b2b      	ldr	r3, [pc, #172]	@ (8000918 <GPIO_Init+0x19c>)
 800086a:	689b      	ldr	r3, [r3, #8]
 800086c:	687a      	ldr	r2, [r7, #4]
 800086e:	7912      	ldrb	r2, [r2, #4]
 8000870:	4611      	mov	r1, r2
 8000872:	2201      	movs	r2, #1
 8000874:	408a      	lsls	r2, r1
 8000876:	4611      	mov	r1, r2
 8000878:	4a27      	ldr	r2, [pc, #156]	@ (8000918 <GPIO_Init+0x19c>)
 800087a:	430b      	orrs	r3, r1
 800087c:	6093      	str	r3, [r2, #8]
				// clear the corresponding RTSR bit
				EXTI->FTSR1 |= (1 << pGPIOHandle->GPIO_PinConfig.GPIO_PinNumber);
 800087e:	4b26      	ldr	r3, [pc, #152]	@ (8000918 <GPIO_Init+0x19c>)
 8000880:	68db      	ldr	r3, [r3, #12]
 8000882:	687a      	ldr	r2, [r7, #4]
 8000884:	7912      	ldrb	r2, [r2, #4]
 8000886:	4611      	mov	r1, r2
 8000888:	2201      	movs	r2, #1
 800088a:	408a      	lsls	r2, r1
 800088c:	4611      	mov	r1, r2
 800088e:	4a22      	ldr	r2, [pc, #136]	@ (8000918 <GPIO_Init+0x19c>)
 8000890:	430b      	orrs	r3, r1
 8000892:	60d3      	str	r3, [r2, #12]
			}

			//2. Configure the GPIO port selection in SYSCFG_EXTICR
			uint8_t temp1,temp2;
			temp1 = pGPIOHandle->GPIO_PinConfig.GPIO_PinNumber / 4;
 8000894:	687b      	ldr	r3, [r7, #4]
 8000896:	791b      	ldrb	r3, [r3, #4]
 8000898:	089b      	lsrs	r3, r3, #2
 800089a:	74fb      	strb	r3, [r7, #19]
			temp2 = pGPIOHandle->GPIO_PinConfig.GPIO_PinNumber % 4;
 800089c:	687b      	ldr	r3, [r7, #4]
 800089e:	791b      	ldrb	r3, [r3, #4]
 80008a0:	f003 0303 	and.w	r3, r3, #3
 80008a4:	74bb      	strb	r3, [r7, #18]
			uint8_t portcode = GPIO_BASEADDR_TO_CODE(pGPIOHandle->pGPIOx);
 80008a6:	687b      	ldr	r3, [r7, #4]
 80008a8:	681b      	ldr	r3, [r3, #0]
 80008aa:	f1b3 4f90 	cmp.w	r3, #1207959552	@ 0x48000000
 80008ae:	d043      	beq.n	8000938 <GPIO_Init+0x1bc>
 80008b0:	687b      	ldr	r3, [r7, #4]
 80008b2:	681b      	ldr	r3, [r3, #0]
 80008b4:	4a19      	ldr	r2, [pc, #100]	@ (800091c <GPIO_Init+0x1a0>)
 80008b6:	4293      	cmp	r3, r2
 80008b8:	d02b      	beq.n	8000912 <GPIO_Init+0x196>
 80008ba:	687b      	ldr	r3, [r7, #4]
 80008bc:	681b      	ldr	r3, [r3, #0]
 80008be:	4a18      	ldr	r2, [pc, #96]	@ (8000920 <GPIO_Init+0x1a4>)
 80008c0:	4293      	cmp	r3, r2
 80008c2:	d024      	beq.n	800090e <GPIO_Init+0x192>
 80008c4:	687b      	ldr	r3, [r7, #4]
 80008c6:	681b      	ldr	r3, [r3, #0]
 80008c8:	4a16      	ldr	r2, [pc, #88]	@ (8000924 <GPIO_Init+0x1a8>)
 80008ca:	4293      	cmp	r3, r2
 80008cc:	d01d      	beq.n	800090a <GPIO_Init+0x18e>
 80008ce:	687b      	ldr	r3, [r7, #4]
 80008d0:	681b      	ldr	r3, [r3, #0]
 80008d2:	4a15      	ldr	r2, [pc, #84]	@ (8000928 <GPIO_Init+0x1ac>)
 80008d4:	4293      	cmp	r3, r2
 80008d6:	d016      	beq.n	8000906 <GPIO_Init+0x18a>
 80008d8:	687b      	ldr	r3, [r7, #4]
 80008da:	681b      	ldr	r3, [r3, #0]
 80008dc:	4a13      	ldr	r2, [pc, #76]	@ (800092c <GPIO_Init+0x1b0>)
 80008de:	4293      	cmp	r3, r2
 80008e0:	d00f      	beq.n	8000902 <GPIO_Init+0x186>
 80008e2:	687b      	ldr	r3, [r7, #4]
 80008e4:	681b      	ldr	r3, [r3, #0]
 80008e6:	4a12      	ldr	r2, [pc, #72]	@ (8000930 <GPIO_Init+0x1b4>)
 80008e8:	4293      	cmp	r3, r2
 80008ea:	d008      	beq.n	80008fe <GPIO_Init+0x182>
 80008ec:	687b      	ldr	r3, [r7, #4]
 80008ee:	681b      	ldr	r3, [r3, #0]
 80008f0:	4a10      	ldr	r2, [pc, #64]	@ (8000934 <GPIO_Init+0x1b8>)
 80008f2:	4293      	cmp	r3, r2
 80008f4:	d101      	bne.n	80008fa <GPIO_Init+0x17e>
 80008f6:	2307      	movs	r3, #7
 80008f8:	e01f      	b.n	800093a <GPIO_Init+0x1be>
 80008fa:	2300      	movs	r3, #0
 80008fc:	e01d      	b.n	800093a <GPIO_Init+0x1be>
 80008fe:	2306      	movs	r3, #6
 8000900:	e01b      	b.n	800093a <GPIO_Init+0x1be>
 8000902:	2305      	movs	r3, #5
 8000904:	e019      	b.n	800093a <GPIO_Init+0x1be>
 8000906:	2304      	movs	r3, #4
 8000908:	e017      	b.n	800093a <GPIO_Init+0x1be>
 800090a:	2303      	movs	r3, #3
 800090c:	e015      	b.n	800093a <GPIO_Init+0x1be>
 800090e:	2302      	movs	r3, #2
 8000910:	e013      	b.n	800093a <GPIO_Init+0x1be>
 8000912:	2301      	movs	r3, #1
 8000914:	e011      	b.n	800093a <GPIO_Init+0x1be>
 8000916:	bf00      	nop
 8000918:	40010400 	.word	0x40010400
 800091c:	48000400 	.word	0x48000400
 8000920:	48000800 	.word	0x48000800
 8000924:	48000c00 	.word	0x48000c00
 8000928:	48001000 	.word	0x48001000
 800092c:	48001400 	.word	0x48001400
 8000930:	48001800 	.word	0x48001800
 8000934:	48001c00 	.word	0x48001c00
 8000938:	2300      	movs	r3, #0
 800093a:	747b      	strb	r3, [r7, #17]
			SYSCFG_PCLK_EN();
 800093c:	4b69      	ldr	r3, [pc, #420]	@ (8000ae4 <GPIO_Init+0x368>)
 800093e:	6e1b      	ldr	r3, [r3, #96]	@ 0x60
 8000940:	4a68      	ldr	r2, [pc, #416]	@ (8000ae4 <GPIO_Init+0x368>)
 8000942:	f043 0301 	orr.w	r3, r3, #1
 8000946:	6613      	str	r3, [r2, #96]	@ 0x60
			SYSCFG->EXTICR[temp1] &= ~(0xF << (temp2 * 4));
 8000948:	4a67      	ldr	r2, [pc, #412]	@ (8000ae8 <GPIO_Init+0x36c>)
 800094a:	7cfb      	ldrb	r3, [r7, #19]
 800094c:	3302      	adds	r3, #2
 800094e:	f852 2023 	ldr.w	r2, [r2, r3, lsl #2]
 8000952:	7cbb      	ldrb	r3, [r7, #18]
 8000954:	009b      	lsls	r3, r3, #2
 8000956:	210f      	movs	r1, #15
 8000958:	fa01 f303 	lsl.w	r3, r1, r3
 800095c:	43db      	mvns	r3, r3
 800095e:	4618      	mov	r0, r3
 8000960:	4961      	ldr	r1, [pc, #388]	@ (8000ae8 <GPIO_Init+0x36c>)
 8000962:	7cfb      	ldrb	r3, [r7, #19]
 8000964:	4002      	ands	r2, r0
 8000966:	3302      	adds	r3, #2
 8000968:	f841 2023 	str.w	r2, [r1, r3, lsl #2]
			SYSCFG->EXTICR[temp1] |= portcode << (temp2 * 4);
 800096c:	4a5e      	ldr	r2, [pc, #376]	@ (8000ae8 <GPIO_Init+0x36c>)
 800096e:	7cfb      	ldrb	r3, [r7, #19]
 8000970:	3302      	adds	r3, #2
 8000972:	f852 2023 	ldr.w	r2, [r2, r3, lsl #2]
 8000976:	7c79      	ldrb	r1, [r7, #17]
 8000978:	7cbb      	ldrb	r3, [r7, #18]
 800097a:	009b      	lsls	r3, r3, #2
 800097c:	fa01 f303 	lsl.w	r3, r1, r3
 8000980:	4618      	mov	r0, r3
 8000982:	4959      	ldr	r1, [pc, #356]	@ (8000ae8 <GPIO_Init+0x36c>)
 8000984:	7cfb      	ldrb	r3, [r7, #19]
 8000986:	4302      	orrs	r2, r0
 8000988:	3302      	adds	r3, #2
 800098a:	f841 2023 	str.w	r2, [r1, r3, lsl #2]

			//3. Enable the exti interrupt delivery using IMR
			EXTI->IMR1 |= (1 << pGPIOHandle->GPIO_PinConfig.GPIO_PinNumber);
 800098e:	4b57      	ldr	r3, [pc, #348]	@ (8000aec <GPIO_Init+0x370>)
 8000990:	681b      	ldr	r3, [r3, #0]
 8000992:	687a      	ldr	r2, [r7, #4]
 8000994:	7912      	ldrb	r2, [r2, #4]
 8000996:	4611      	mov	r1, r2
 8000998:	2201      	movs	r2, #1
 800099a:	408a      	lsls	r2, r1
 800099c:	4611      	mov	r1, r2
 800099e:	4a53      	ldr	r2, [pc, #332]	@ (8000aec <GPIO_Init+0x370>)
 80009a0:	430b      	orrs	r3, r1
 80009a2:	6013      	str	r3, [r2, #0]
	}
	//2. Configure the speed
	temp = 0;
 80009a4:	2300      	movs	r3, #0
 80009a6:	617b      	str	r3, [r7, #20]
	temp = (pGPIOHandle->GPIO_PinConfig.GPIO_PinSpeed << (2 * pGPIOHandle->GPIO_PinConfig.GPIO_PinNumber));
 80009a8:	687b      	ldr	r3, [r7, #4]
 80009aa:	799b      	ldrb	r3, [r3, #6]
 80009ac:	461a      	mov	r2, r3
 80009ae:	687b      	ldr	r3, [r7, #4]
 80009b0:	791b      	ldrb	r3, [r3, #4]
 80009b2:	005b      	lsls	r3, r3, #1
 80009b4:	fa02 f303 	lsl.w	r3, r2, r3
 80009b8:	617b      	str	r3, [r7, #20]
	pGPIOHandle->pGPIOx->OSPEEDR &= ~(0x3 << (2 * pGPIOHandle->GPIO_PinConfig.GPIO_PinNumber ));
 80009ba:	687b      	ldr	r3, [r7, #4]
 80009bc:	681b      	ldr	r3, [r3, #0]
 80009be:	689a      	ldr	r2, [r3, #8]
 80009c0:	687b      	ldr	r3, [r7, #4]
 80009c2:	791b      	ldrb	r3, [r3, #4]
 80009c4:	005b      	lsls	r3, r3, #1
 80009c6:	2103      	movs	r1, #3
 80009c8:	fa01 f303 	lsl.w	r3, r1, r3
 80009cc:	43db      	mvns	r3, r3
 80009ce:	4619      	mov	r1, r3
 80009d0:	687b      	ldr	r3, [r7, #4]
 80009d2:	681b      	ldr	r3, [r3, #0]
 80009d4:	400a      	ands	r2, r1
 80009d6:	609a      	str	r2, [r3, #8]
	pGPIOHandle->pGPIOx->OSPEEDR |= temp;
 80009d8:	687b      	ldr	r3, [r7, #4]
 80009da:	681b      	ldr	r3, [r3, #0]
 80009dc:	6899      	ldr	r1, [r3, #8]
 80009de:	687b      	ldr	r3, [r7, #4]
 80009e0:	681b      	ldr	r3, [r3, #0]
 80009e2:	697a      	ldr	r2, [r7, #20]
 80009e4:	430a      	orrs	r2, r1
 80009e6:	609a      	str	r2, [r3, #8]
	// 3. configure the pupd setting
	temp = 0;
 80009e8:	2300      	movs	r3, #0
 80009ea:	617b      	str	r3, [r7, #20]
		temp = (pGPIOHandle->GPIO_PinConfig.GPIO_PinPuPdControl << (2 * pGPIOHandle->GPIO_PinConfig.GPIO_PinNumber));
 80009ec:	687b      	ldr	r3, [r7, #4]
 80009ee:	79db      	ldrb	r3, [r3, #7]
 80009f0:	461a      	mov	r2, r3
 80009f2:	687b      	ldr	r3, [r7, #4]
 80009f4:	791b      	ldrb	r3, [r3, #4]
 80009f6:	005b      	lsls	r3, r3, #1
 80009f8:	fa02 f303 	lsl.w	r3, r2, r3
 80009fc:	617b      	str	r3, [r7, #20]
		pGPIOHandle->pGPIOx->PUPDR &= ~(0x3 << (2 * pGPIOHandle->GPIO_PinConfig.GPIO_PinNumber ));
 80009fe:	687b      	ldr	r3, [r7, #4]
 8000a00:	681b      	ldr	r3, [r3, #0]
 8000a02:	68da      	ldr	r2, [r3, #12]
 8000a04:	687b      	ldr	r3, [r7, #4]
 8000a06:	791b      	ldrb	r3, [r3, #4]
 8000a08:	005b      	lsls	r3, r3, #1
 8000a0a:	2103      	movs	r1, #3
 8000a0c:	fa01 f303 	lsl.w	r3, r1, r3
 8000a10:	43db      	mvns	r3, r3
 8000a12:	4619      	mov	r1, r3
 8000a14:	687b      	ldr	r3, [r7, #4]
 8000a16:	681b      	ldr	r3, [r3, #0]
 8000a18:	400a      	ands	r2, r1
 8000a1a:	60da      	str	r2, [r3, #12]
		pGPIOHandle->pGPIOx->PUPDR |= temp;
 8000a1c:	687b      	ldr	r3, [r7, #4]
 8000a1e:	681b      	ldr	r3, [r3, #0]
 8000a20:	68d9      	ldr	r1, [r3, #12]
 8000a22:	687b      	ldr	r3, [r7, #4]
 8000a24:	681b      	ldr	r3, [r3, #0]
 8000a26:	697a      	ldr	r2, [r7, #20]
 8000a28:	430a      	orrs	r2, r1
 8000a2a:	60da      	str	r2, [r3, #12]

	// 4. configure the optype
	temp = 0;
 8000a2c:	2300      	movs	r3, #0
 8000a2e:	617b      	str	r3, [r7, #20]
	temp = (pGPIOHandle->GPIO_PinConfig.GPIO_PinOPType << (pGPIOHandle->GPIO_PinConfig.GPIO_PinNumber));
 8000a30:	687b      	ldr	r3, [r7, #4]
 8000a32:	7a1b      	ldrb	r3, [r3, #8]
 8000a34:	461a      	mov	r2, r3
 8000a36:	687b      	ldr	r3, [r7, #4]
 8000a38:	791b      	ldrb	r3, [r3, #4]
 8000a3a:	fa02 f303 	lsl.w	r3, r2, r3
 8000a3e:	617b      	str	r3, [r7, #20]
	pGPIOHandle->pGPIOx->OTYPER &= ~(0x1 << pGPIOHandle->GPIO_PinConfig.GPIO_PinNumber );
 8000a40:	687b      	ldr	r3, [r7, #4]
 8000a42:	681b      	ldr	r3, [r3, #0]
 8000a44:	685a      	ldr	r2, [r3, #4]
 8000a46:	687b      	ldr	r3, [r7, #4]
 8000a48:	791b      	ldrb	r3, [r3, #4]
 8000a4a:	4619      	mov	r1, r3
 8000a4c:	2301      	movs	r3, #1
 8000a4e:	408b      	lsls	r3, r1
 8000a50:	43db      	mvns	r3, r3
 8000a52:	4619      	mov	r1, r3
 8000a54:	687b      	ldr	r3, [r7, #4]
 8000a56:	681b      	ldr	r3, [r3, #0]
 8000a58:	400a      	ands	r2, r1
 8000a5a:	605a      	str	r2, [r3, #4]
	pGPIOHandle->pGPIOx->OTYPER |= temp;
 8000a5c:	687b      	ldr	r3, [r7, #4]
 8000a5e:	681b      	ldr	r3, [r3, #0]
 8000a60:	6859      	ldr	r1, [r3, #4]
 8000a62:	687b      	ldr	r3, [r7, #4]
 8000a64:	681b      	ldr	r3, [r3, #0]
 8000a66:	697a      	ldr	r2, [r7, #20]
 8000a68:	430a      	orrs	r2, r1
 8000a6a:	605a      	str	r2, [r3, #4]

	//5. Congfigure the alt functionality
	if(pGPIOHandle->GPIO_PinConfig.GPIO_PinMode <= GPIO_MODE_ALTFN){
 8000a6c:	687b      	ldr	r3, [r7, #4]
 8000a6e:	795b      	ldrb	r3, [r3, #5]
 8000a70:	2b02      	cmp	r3, #2
 8000a72:	d831      	bhi.n	8000ad8 <GPIO_Init+0x35c>
		uint8_t temp1,temp2;
		temp1 = pGPIOHandle->GPIO_PinConfig.GPIO_PinNumber / 8;
 8000a74:	687b      	ldr	r3, [r7, #4]
 8000a76:	791b      	ldrb	r3, [r3, #4]
 8000a78:	08db      	lsrs	r3, r3, #3
 8000a7a:	743b      	strb	r3, [r7, #16]
		temp2 = pGPIOHandle->GPIO_PinConfig.GPIO_PinNumber % 8;
 8000a7c:	687b      	ldr	r3, [r7, #4]
 8000a7e:	791b      	ldrb	r3, [r3, #4]
 8000a80:	f003 0307 	and.w	r3, r3, #7
 8000a84:	73fb      	strb	r3, [r7, #15]
		pGPIOHandle->pGPIOx->AFR[temp1] &= ~(0xF << (4 * temp2));
 8000a86:	687b      	ldr	r3, [r7, #4]
 8000a88:	681b      	ldr	r3, [r3, #0]
 8000a8a:	7c3a      	ldrb	r2, [r7, #16]
 8000a8c:	3208      	adds	r2, #8
 8000a8e:	f853 1022 	ldr.w	r1, [r3, r2, lsl #2]
 8000a92:	7bfb      	ldrb	r3, [r7, #15]
 8000a94:	009b      	lsls	r3, r3, #2
 8000a96:	220f      	movs	r2, #15
 8000a98:	fa02 f303 	lsl.w	r3, r2, r3
 8000a9c:	43db      	mvns	r3, r3
 8000a9e:	4618      	mov	r0, r3
 8000aa0:	687b      	ldr	r3, [r7, #4]
 8000aa2:	681b      	ldr	r3, [r3, #0]
 8000aa4:	7c3a      	ldrb	r2, [r7, #16]
 8000aa6:	4001      	ands	r1, r0
 8000aa8:	3208      	adds	r2, #8
 8000aaa:	f843 1022 	str.w	r1, [r3, r2, lsl #2]
		//pGPIOHandle->pGPIOx->AFR[temp1] &= ~(0xF << pGPIOHandle->GPIO_PinConfig.GPIO_PinNumber );
		pGPIOHandle->pGPIOx->AFR[temp1] |= (pGPIOHandle->GPIO_PinConfig.GPIO_PinAltFunMode << (4 * temp2));
 8000aae:	687b      	ldr	r3, [r7, #4]
 8000ab0:	681b      	ldr	r3, [r3, #0]
 8000ab2:	7c3a      	ldrb	r2, [r7, #16]
 8000ab4:	3208      	adds	r2, #8
 8000ab6:	f853 1022 	ldr.w	r1, [r3, r2, lsl #2]
 8000aba:	687b      	ldr	r3, [r7, #4]
 8000abc:	7a5b      	ldrb	r3, [r3, #9]
 8000abe:	461a      	mov	r2, r3
 8000ac0:	7bfb      	ldrb	r3, [r7, #15]
 8000ac2:	009b      	lsls	r3, r3, #2
 8000ac4:	fa02 f303 	lsl.w	r3, r2, r3
 8000ac8:	4618      	mov	r0, r3
 8000aca:	687b      	ldr	r3, [r7, #4]
 8000acc:	681b      	ldr	r3, [r3, #0]
 8000ace:	7c3a      	ldrb	r2, [r7, #16]
 8000ad0:	4301      	orrs	r1, r0
 8000ad2:	3208      	adds	r2, #8
 8000ad4:	f843 1022 	str.w	r1, [r3, r2, lsl #2]
	}
}
 8000ad8:	bf00      	nop
 8000ada:	371c      	adds	r7, #28
 8000adc:	46bd      	mov	sp, r7
 8000ade:	f85d 7b04 	ldr.w	r7, [sp], #4
 8000ae2:	4770      	bx	lr
 8000ae4:	40021000 	.word	0x40021000
 8000ae8:	40010000 	.word	0x40010000
 8000aec:	40010400 	.word	0x40010400

08000af0 <GPIO_WriteToOutputPin>:
uint16_t GPIO_ReadFromInputPort(GPIO_RegDef_t *pGPIOx){
	uint16_t value;
	value = (uint16_t)pGPIOx->IDR;
	return value;
}
void GPIO_WriteToOutputPin(GPIO_RegDef_t *pGPIOx,uint8_t PinNumber,uint8_t Value){
 8000af0:	b480      	push	{r7}
 8000af2:	b083      	sub	sp, #12
 8000af4:	af00      	add	r7, sp, #0
 8000af6:	6078      	str	r0, [r7, #4]
 8000af8:	460b      	mov	r3, r1
 8000afa:	70fb      	strb	r3, [r7, #3]
 8000afc:	4613      	mov	r3, r2
 8000afe:	70bb      	strb	r3, [r7, #2]
	if(Value == GPIO_PIN_SET){
 8000b00:	78bb      	ldrb	r3, [r7, #2]
 8000b02:	2b01      	cmp	r3, #1
 8000b04:	d109      	bne.n	8000b1a <GPIO_WriteToOutputPin+0x2a>
		//Write 1 to the output data register at the bit field coresponding to the pin number
		pGPIOx->ODR |= (1 << PinNumber);
 8000b06:	687b      	ldr	r3, [r7, #4]
 8000b08:	695b      	ldr	r3, [r3, #20]
 8000b0a:	78fa      	ldrb	r2, [r7, #3]
 8000b0c:	2101      	movs	r1, #1
 8000b0e:	fa01 f202 	lsl.w	r2, r1, r2
 8000b12:	431a      	orrs	r2, r3
 8000b14:	687b      	ldr	r3, [r7, #4]
 8000b16:	615a      	str	r2, [r3, #20]
	}
	else{
		// write 0
		pGPIOx->ODR &= ~(1 << PinNumber);
	}
}
 8000b18:	e009      	b.n	8000b2e <GPIO_WriteToOutputPin+0x3e>
		pGPIOx->ODR &= ~(1 << PinNumber);
 8000b1a:	687b      	ldr	r3, [r7, #4]
 8000b1c:	695b      	ldr	r3, [r3, #20]
 8000b1e:	78fa      	ldrb	r2, [r7, #3]
 8000b20:	2101      	movs	r1, #1
 8000b22:	fa01 f202 	lsl.w	r2, r1, r2
 8000b26:	43d2      	mvns	r2, r2
 8000b28:	401a      	ands	r2, r3
 8000b2a:	687b      	ldr	r3, [r7, #4]
 8000b2c:	615a      	str	r2, [r3, #20]
}
 8000b2e:	bf00      	nop
 8000b30:	370c      	adds	r7, #12
 8000b32:	46bd      	mov	sp, r7
 8000b34:	f85d 7b04 	ldr.w	r7, [sp], #4
 8000b38:	4770      	bx	lr
	...

08000b3c <GPIO_IRQITConfig>:
void GPIO_ToggleOutputPin(GPIO_RegDef_t *pGPIOx,uint8_t PinNumber){
	pGPIOx->ODR ^= (1 << PinNumber);
}

//IRQ Configuration and ISR handling
void GPIO_IRQITConfig(uint8_t IRQNumber,uint8_t EnorDi){
 8000b3c:	b480      	push	{r7}
 8000b3e:	b083      	sub	sp, #12
 8000b40:	af00      	add	r7, sp, #0
 8000b42:	4603      	mov	r3, r0
 8000b44:	460a      	mov	r2, r1
 8000b46:	71fb      	strb	r3, [r7, #7]
 8000b48:	4613      	mov	r3, r2
 8000b4a:	71bb      	strb	r3, [r7, #6]
	if(EnorDi == ENABLE){
 8000b4c:	79bb      	ldrb	r3, [r7, #6]
 8000b4e:	2b01      	cmp	r3, #1
 8000b50:	d133      	bne.n	8000bba <GPIO_IRQITConfig+0x7e>
		if(IRQNumber <= 31){
 8000b52:	79fb      	ldrb	r3, [r7, #7]
 8000b54:	2b1f      	cmp	r3, #31
 8000b56:	d80a      	bhi.n	8000b6e <GPIO_IRQITConfig+0x32>
			//program ISER0 register
			*NVIC_ISER0 |= (1 << IRQNumber);
 8000b58:	4b35      	ldr	r3, [pc, #212]	@ (8000c30 <GPIO_IRQITConfig+0xf4>)
 8000b5a:	681b      	ldr	r3, [r3, #0]
 8000b5c:	79fa      	ldrb	r2, [r7, #7]
 8000b5e:	2101      	movs	r1, #1
 8000b60:	fa01 f202 	lsl.w	r2, r1, r2
 8000b64:	4611      	mov	r1, r2
 8000b66:	4a32      	ldr	r2, [pc, #200]	@ (8000c30 <GPIO_IRQITConfig+0xf4>)
 8000b68:	430b      	orrs	r3, r1
 8000b6a:	6013      	str	r3, [r2, #0]
		else if(IRQNumber >= 64 && IRQNumber < 96){
			//program ICER2 register
			*NVIC_ICER3 |= (1 << IRQNumber % 64);
		}
	}
}
 8000b6c:	e059      	b.n	8000c22 <GPIO_IRQITConfig+0xe6>
		else if(IRQNumber > 31 && IRQNumber < 64){
 8000b6e:	79fb      	ldrb	r3, [r7, #7]
 8000b70:	2b1f      	cmp	r3, #31
 8000b72:	d90f      	bls.n	8000b94 <GPIO_IRQITConfig+0x58>
 8000b74:	79fb      	ldrb	r3, [r7, #7]
 8000b76:	2b3f      	cmp	r3, #63	@ 0x3f
 8000b78:	d80c      	bhi.n	8000b94 <GPIO_IRQITConfig+0x58>
			*NVIC_ISER1 |= (1 << IRQNumber % 32);
 8000b7a:	4b2e      	ldr	r3, [pc, #184]	@ (8000c34 <GPIO_IRQITConfig+0xf8>)
 8000b7c:	681b      	ldr	r3, [r3, #0]
 8000b7e:	79fa      	ldrb	r2, [r7, #7]
 8000b80:	f002 021f 	and.w	r2, r2, #31
 8000b84:	2101      	movs	r1, #1
 8000b86:	fa01 f202 	lsl.w	r2, r1, r2
 8000b8a:	4611      	mov	r1, r2
 8000b8c:	4a29      	ldr	r2, [pc, #164]	@ (8000c34 <GPIO_IRQITConfig+0xf8>)
 8000b8e:	430b      	orrs	r3, r1
 8000b90:	6013      	str	r3, [r2, #0]
 8000b92:	e046      	b.n	8000c22 <GPIO_IRQITConfig+0xe6>
		else if(IRQNumber >= 64 && IRQNumber < 96){
 8000b94:	79fb      	ldrb	r3, [r7, #7]
 8000b96:	2b3f      	cmp	r3, #63	@ 0x3f
 8000b98:	d943      	bls.n	8000c22 <GPIO_IRQITConfig+0xe6>
 8000b9a:	79fb      	ldrb	r3, [r7, #7]
 8000b9c:	2b5f      	cmp	r3, #95	@ 0x5f
 8000b9e:	d840      	bhi.n	8000c22 <GPIO_IRQITConfig+0xe6>
			*NVIC_ISER3 |= (1 << IRQNumber % 64);
 8000ba0:	4b25      	ldr	r3, [pc, #148]	@ (8000c38 <GPIO_IRQITConfig+0xfc>)
 8000ba2:	681b      	ldr	r3, [r3, #0]
 8000ba4:	79fa      	ldrb	r2, [r7, #7]
 8000ba6:	f002 023f 	and.w	r2, r2, #63	@ 0x3f
 8000baa:	2101      	movs	r1, #1
 8000bac:	fa01 f202 	lsl.w	r2, r1, r2
 8000bb0:	4611      	mov	r1, r2
 8000bb2:	4a21      	ldr	r2, [pc, #132]	@ (8000c38 <GPIO_IRQITConfig+0xfc>)
 8000bb4:	430b      	orrs	r3, r1
 8000bb6:	6013      	str	r3, [r2, #0]
}
 8000bb8:	e033      	b.n	8000c22 <GPIO_IRQITConfig+0xe6>
		if(IRQNumber <= 31){
 8000bba:	79fb      	ldrb	r3, [r7, #7]
 8000bbc:	2b1f      	cmp	r3, #31
 8000bbe:	d80a      	bhi.n	8000bd6 <GPIO_IRQITConfig+0x9a>
			*NVIC_ICER0 |= (1 << IRQNumber);
 8000bc0:	4b1e      	ldr	r3, [pc, #120]	@ (8000c3c <GPIO_IRQITConfig+0x100>)
 8000bc2:	681b      	ldr	r3, [r3, #0]
 8000bc4:	79fa      	ldrb	r2, [r7, #7]
 8000bc6:	2101      	movs	r1, #1
 8000bc8:	fa01 f202 	lsl.w	r2, r1, r2
 8000bcc:	4611      	mov	r1, r2
 8000bce:	4a1b      	ldr	r2, [pc, #108]	@ (8000c3c <GPIO_IRQITConfig+0x100>)
 8000bd0:	430b      	orrs	r3, r1
 8000bd2:	6013      	str	r3, [r2, #0]
}
 8000bd4:	e025      	b.n	8000c22 <GPIO_IRQITConfig+0xe6>
		}else if(IRQNumber > 31 && IRQNumber < 64){
 8000bd6:	79fb      	ldrb	r3, [r7, #7]
 8000bd8:	2b1f      	cmp	r3, #31
 8000bda:	d90f      	bls.n	8000bfc <GPIO_IRQITConfig+0xc0>
 8000bdc:	79fb      	ldrb	r3, [r7, #7]
 8000bde:	2b3f      	cmp	r3, #63	@ 0x3f
 8000be0:	d80c      	bhi.n	8000bfc <GPIO_IRQITConfig+0xc0>
			*NVIC_ICER1 |= (1 << IRQNumber % 32);
 8000be2:	4b17      	ldr	r3, [pc, #92]	@ (8000c40 <GPIO_IRQITConfig+0x104>)
 8000be4:	681b      	ldr	r3, [r3, #0]
 8000be6:	79fa      	ldrb	r2, [r7, #7]
 8000be8:	f002 021f 	and.w	r2, r2, #31
 8000bec:	2101      	movs	r1, #1
 8000bee:	fa01 f202 	lsl.w	r2, r1, r2
 8000bf2:	4611      	mov	r1, r2
 8000bf4:	4a12      	ldr	r2, [pc, #72]	@ (8000c40 <GPIO_IRQITConfig+0x104>)
 8000bf6:	430b      	orrs	r3, r1
 8000bf8:	6013      	str	r3, [r2, #0]
 8000bfa:	e012      	b.n	8000c22 <GPIO_IRQITConfig+0xe6>
		else if(IRQNumber >= 64 && IRQNumber < 96){
 8000bfc:	79fb      	ldrb	r3, [r7, #7]
 8000bfe:	2b3f      	cmp	r3, #63	@ 0x3f
 8000c00:	d90f      	bls.n	8000c22 <GPIO_IRQITConfig+0xe6>
 8000c02:	79fb      	ldrb	r3, [r7, #7]
 8000c04:	2b5f      	cmp	r3, #95	@ 0x5f
 8000c06:	d80c      	bhi.n	8000c22 <GPIO_IRQITConfig+0xe6>
			*NVIC_ICER3 |= (1 << IRQNumber % 64);
 8000c08:	4b0e      	ldr	r3, [pc, #56]	@ (8000c44 <GPIO_IRQITConfig+0x108>)
 8000c0a:	681b      	ldr	r3, [r3, #0]
 8000c0c:	79fa      	ldrb	r2, [r7, #7]
 8000c0e:	f002 023f 	and.w	r2, r2, #63	@ 0x3f
 8000c12:	2101      	movs	r1, #1
 8000c14:	fa01 f202 	lsl.w	r2, r1, r2
 8000c18:	4611      	mov	r1, r2
 8000c1a:	4a0a      	ldr	r2, [pc, #40]	@ (8000c44 <GPIO_IRQITConfig+0x108>)
 8000c1c:	430b      	orrs	r3, r1
 8000c1e:	6013      	str	r3, [r2, #0]
}
 8000c20:	e7ff      	b.n	8000c22 <GPIO_IRQITConfig+0xe6>
 8000c22:	bf00      	nop
 8000c24:	370c      	adds	r7, #12
 8000c26:	46bd      	mov	sp, r7
 8000c28:	f85d 7b04 	ldr.w	r7, [sp], #4
 8000c2c:	4770      	bx	lr
 8000c2e:	bf00      	nop
 8000c30:	e000e100 	.word	0xe000e100
 8000c34:	e000e104 	.word	0xe000e104
 8000c38:	e000e10c 	.word	0xe000e10c
 8000c3c:	e000e180 	.word	0xe000e180
 8000c40:	e000e184 	.word	0xe000e184
 8000c44:	e000e18c 	.word	0xe000e18c

08000c48 <I2C_Init>:
        }
    }
}

void I2C_Init(I2C_Handle_t *pI2CHandle)
{
 8000c48:	b480      	push	{r7}
 8000c4a:	b083      	sub	sp, #12
 8000c4c:	af00      	add	r7, sp, #0
 8000c4e:	6078      	str	r0, [r7, #4]
    /* Disable Peripheral */
    pI2CHandle->pI2Cx->CR1 &= ~(1 << I2C_CR1_PE_Pos);
 8000c50:	687b      	ldr	r3, [r7, #4]
 8000c52:	681b      	ldr	r3, [r3, #0]
 8000c54:	681a      	ldr	r2, [r3, #0]
 8000c56:	687b      	ldr	r3, [r7, #4]
 8000c58:	681b      	ldr	r3, [r3, #0]
 8000c5a:	f022 0201 	bic.w	r2, r2, #1
 8000c5e:	601a      	str	r2, [r3, #0]
     * TIMINGR
     * 100KHz
     * PCLK1 = 80MHz
     */

    if(pI2CHandle->I2C_Config.I2C_SCLSpeed == I2C_SCL_SPEED_SM)
 8000c60:	687b      	ldr	r3, [r7, #4]
 8000c62:	685b      	ldr	r3, [r3, #4]
 8000c64:	4a13      	ldr	r2, [pc, #76]	@ (8000cb4 <I2C_Init+0x6c>)
 8000c66:	4293      	cmp	r3, r2
 8000c68:	d104      	bne.n	8000c74 <I2C_Init+0x2c>
    {
        pI2CHandle->pI2Cx->TIMINGR = 0x10909CEC;
 8000c6a:	687b      	ldr	r3, [r7, #4]
 8000c6c:	681b      	ldr	r3, [r3, #0]
 8000c6e:	4a12      	ldr	r2, [pc, #72]	@ (8000cb8 <I2C_Init+0x70>)
 8000c70:	611a      	str	r2, [r3, #16]
 8000c72:	e008      	b.n	8000c86 <I2C_Init+0x3e>
    }
    else if(pI2CHandle->I2C_Config.I2C_SCLSpeed == I2C_SCL_SPEED_FM)
 8000c74:	687b      	ldr	r3, [r7, #4]
 8000c76:	685b      	ldr	r3, [r3, #4]
 8000c78:	4a10      	ldr	r2, [pc, #64]	@ (8000cbc <I2C_Init+0x74>)
 8000c7a:	4293      	cmp	r3, r2
 8000c7c:	d103      	bne.n	8000c86 <I2C_Init+0x3e>
    {
        pI2CHandle->pI2Cx->TIMINGR = 0x00702991;
 8000c7e:	687b      	ldr	r3, [r7, #4]
 8000c80:	681b      	ldr	r3, [r3, #0]
 8000c82:	4a0f      	ldr	r2, [pc, #60]	@ (8000cc0 <I2C_Init+0x78>)
 8000c84:	611a      	str	r2, [r3, #16]
    }

    /* Own Address */
    pI2CHandle->pI2Cx->OAR1 =
            (1 << 10) |
            (pI2CHandle->I2C_Config.I2C_DeviceAddress << 1);
 8000c86:	687b      	ldr	r3, [r7, #4]
 8000c88:	7a1b      	ldrb	r3, [r3, #8]
 8000c8a:	005b      	lsls	r3, r3, #1
            (1 << 10) |
 8000c8c:	f443 6280 	orr.w	r2, r3, #1024	@ 0x400
    pI2CHandle->pI2Cx->OAR1 =
 8000c90:	687b      	ldr	r3, [r7, #4]
 8000c92:	681b      	ldr	r3, [r3, #0]
 8000c94:	609a      	str	r2, [r3, #8]

    /* Enable Peripheral */
    pI2CHandle->pI2Cx->CR1 |= (1 << I2C_CR1_PE_Pos);
 8000c96:	687b      	ldr	r3, [r7, #4]
 8000c98:	681b      	ldr	r3, [r3, #0]
 8000c9a:	681a      	ldr	r2, [r3, #0]
 8000c9c:	687b      	ldr	r3, [r7, #4]
 8000c9e:	681b      	ldr	r3, [r3, #0]
 8000ca0:	f042 0201 	orr.w	r2, r2, #1
 8000ca4:	601a      	str	r2, [r3, #0]
}
 8000ca6:	bf00      	nop
 8000ca8:	370c      	adds	r7, #12
 8000caa:	46bd      	mov	sp, r7
 8000cac:	f85d 7b04 	ldr.w	r7, [sp], #4
 8000cb0:	4770      	bx	lr
 8000cb2:	bf00      	nop
 8000cb4:	000186a0 	.word	0x000186a0
 8000cb8:	10909cec 	.word	0x10909cec
 8000cbc:	00061a80 	.word	0x00061a80
 8000cc0:	00702991 	.word	0x00702991

08000cc4 <I2C_MasterSendDataIT>:
}
uint8_t I2C_MasterSendDataIT(I2C_Handle_t *pI2CHandle,
                             uint8_t *pTxBuffer,
                             uint32_t Len,
                             uint8_t SlaveAddr)
{
 8000cc4:	b480      	push	{r7}
 8000cc6:	b087      	sub	sp, #28
 8000cc8:	af00      	add	r7, sp, #0
 8000cca:	60f8      	str	r0, [r7, #12]
 8000ccc:	60b9      	str	r1, [r7, #8]
 8000cce:	607a      	str	r2, [r7, #4]
 8000cd0:	70fb      	strb	r3, [r7, #3]
    uint8_t busystate =
 8000cd2:	68fb      	ldr	r3, [r7, #12]
 8000cd4:	7f1b      	ldrb	r3, [r3, #28]
 8000cd6:	75fb      	strb	r3, [r7, #23]
            pI2CHandle->TxRxState;

    if(busystate != I2C_BUSY_IN_TX)
 8000cd8:	7dfb      	ldrb	r3, [r7, #23]
 8000cda:	2b02      	cmp	r3, #2
 8000cdc:	d04e      	beq.n	8000d7c <I2C_MasterSendDataIT+0xb8>
    {
        pI2CHandle->pTxBuffer = pTxBuffer;
 8000cde:	68fb      	ldr	r3, [r7, #12]
 8000ce0:	68ba      	ldr	r2, [r7, #8]
 8000ce2:	60da      	str	r2, [r3, #12]
        pI2CHandle->TxLen = Len;
 8000ce4:	68fb      	ldr	r3, [r7, #12]
 8000ce6:	687a      	ldr	r2, [r7, #4]
 8000ce8:	615a      	str	r2, [r3, #20]

        pI2CHandle->TxRxState =
 8000cea:	68fb      	ldr	r3, [r7, #12]
 8000cec:	2202      	movs	r2, #2
 8000cee:	771a      	strb	r2, [r3, #28]
                I2C_BUSY_IN_TX;

        /*
         * Wait BUSY reset
         */
        while(pI2CHandle->pI2Cx->ISR &
 8000cf0:	bf00      	nop
 8000cf2:	68fb      	ldr	r3, [r7, #12]
 8000cf4:	681b      	ldr	r3, [r3, #0]
 8000cf6:	699b      	ldr	r3, [r3, #24]
 8000cf8:	f403 4300 	and.w	r3, r3, #32768	@ 0x8000
 8000cfc:	2b00      	cmp	r3, #0
 8000cfe:	d1f8      	bne.n	8000cf2 <I2C_MasterSendDataIT+0x2e>
                (1 << I2C_ISR_BUSY_Pos));

        /*
         * Configure CR2
         */
        pI2CHandle->pI2Cx->CR2 = 0;
 8000d00:	68fb      	ldr	r3, [r7, #12]
 8000d02:	681b      	ldr	r3, [r3, #0]
 8000d04:	2200      	movs	r2, #0
 8000d06:	605a      	str	r2, [r3, #4]

        pI2CHandle->pI2Cx->CR2 |=
 8000d08:	68fb      	ldr	r3, [r7, #12]
 8000d0a:	681b      	ldr	r3, [r3, #0]
 8000d0c:	6859      	ldr	r1, [r3, #4]
                (SlaveAddr << 1);
 8000d0e:	78fb      	ldrb	r3, [r7, #3]
 8000d10:	005a      	lsls	r2, r3, #1
        pI2CHandle->pI2Cx->CR2 |=
 8000d12:	68fb      	ldr	r3, [r7, #12]
 8000d14:	681b      	ldr	r3, [r3, #0]
 8000d16:	430a      	orrs	r2, r1
 8000d18:	605a      	str	r2, [r3, #4]

        pI2CHandle->pI2Cx->CR2 |=
 8000d1a:	68fb      	ldr	r3, [r7, #12]
 8000d1c:	681b      	ldr	r3, [r3, #0]
 8000d1e:	6859      	ldr	r1, [r3, #4]
                (Len << I2C_CR2_NBYTES_Pos);
 8000d20:	687b      	ldr	r3, [r7, #4]
 8000d22:	041a      	lsls	r2, r3, #16
        pI2CHandle->pI2Cx->CR2 |=
 8000d24:	68fb      	ldr	r3, [r7, #12]
 8000d26:	681b      	ldr	r3, [r3, #0]
 8000d28:	430a      	orrs	r2, r1
 8000d2a:	605a      	str	r2, [r3, #4]

        pI2CHandle->pI2Cx->CR2 |=
 8000d2c:	68fb      	ldr	r3, [r7, #12]
 8000d2e:	681b      	ldr	r3, [r3, #0]
 8000d30:	685a      	ldr	r2, [r3, #4]
 8000d32:	68fb      	ldr	r3, [r7, #12]
 8000d34:	681b      	ldr	r3, [r3, #0]
 8000d36:	f042 7200 	orr.w	r2, r2, #33554432	@ 0x2000000
 8000d3a:	605a      	str	r2, [r3, #4]
                (1 << I2C_CR2_AUTOEND_Pos);

        /*
         * Enable interrupts
         */
        pI2CHandle->pI2Cx->CR1 |=
 8000d3c:	68fb      	ldr	r3, [r7, #12]
 8000d3e:	681b      	ldr	r3, [r3, #0]
 8000d40:	681a      	ldr	r2, [r3, #0]
 8000d42:	68fb      	ldr	r3, [r7, #12]
 8000d44:	681b      	ldr	r3, [r3, #0]
 8000d46:	f042 0202 	orr.w	r2, r2, #2
 8000d4a:	601a      	str	r2, [r3, #0]
                (1 << I2C_CR1_TXIE_Pos);

        pI2CHandle->pI2Cx->CR1 |=
 8000d4c:	68fb      	ldr	r3, [r7, #12]
 8000d4e:	681b      	ldr	r3, [r3, #0]
 8000d50:	681a      	ldr	r2, [r3, #0]
 8000d52:	68fb      	ldr	r3, [r7, #12]
 8000d54:	681b      	ldr	r3, [r3, #0]
 8000d56:	f042 0220 	orr.w	r2, r2, #32
 8000d5a:	601a      	str	r2, [r3, #0]
                (1 << I2C_CR1_STOPIE_Pos);

        pI2CHandle->pI2Cx->CR1 |=
 8000d5c:	68fb      	ldr	r3, [r7, #12]
 8000d5e:	681b      	ldr	r3, [r3, #0]
 8000d60:	681a      	ldr	r2, [r3, #0]
 8000d62:	68fb      	ldr	r3, [r7, #12]
 8000d64:	681b      	ldr	r3, [r3, #0]
 8000d66:	f042 0210 	orr.w	r2, r2, #16
 8000d6a:	601a      	str	r2, [r3, #0]
                (1 << I2C_CR1_NACKIE_Pos);

        /*
         * Generate START
         */
        pI2CHandle->pI2Cx->CR2 |=
 8000d6c:	68fb      	ldr	r3, [r7, #12]
 8000d6e:	681b      	ldr	r3, [r3, #0]
 8000d70:	685a      	ldr	r2, [r3, #4]
 8000d72:	68fb      	ldr	r3, [r7, #12]
 8000d74:	681b      	ldr	r3, [r3, #0]
 8000d76:	f442 5200 	orr.w	r2, r2, #8192	@ 0x2000
 8000d7a:	605a      	str	r2, [r3, #4]
                (1 << I2C_CR2_START_Pos);
    }

    return busystate;
 8000d7c:	7dfb      	ldrb	r3, [r7, #23]
}
 8000d7e:	4618      	mov	r0, r3
 8000d80:	371c      	adds	r7, #28
 8000d82:	46bd      	mov	sp, r7
 8000d84:	f85d 7b04 	ldr.w	r7, [sp], #4
 8000d88:	4770      	bx	lr

08000d8a <I2C_MasterReceiveDataIT>:
uint8_t I2C_MasterReceiveDataIT(I2C_Handle_t *pI2CHandle,
                                uint8_t *pRxBuffer,
                                uint32_t Len,
                                uint8_t SlaveAddr)
{
 8000d8a:	b480      	push	{r7}
 8000d8c:	b087      	sub	sp, #28
 8000d8e:	af00      	add	r7, sp, #0
 8000d90:	60f8      	str	r0, [r7, #12]
 8000d92:	60b9      	str	r1, [r7, #8]
 8000d94:	607a      	str	r2, [r7, #4]
 8000d96:	70fb      	strb	r3, [r7, #3]
    uint8_t busystate =
 8000d98:	68fb      	ldr	r3, [r7, #12]
 8000d9a:	7f1b      	ldrb	r3, [r3, #28]
 8000d9c:	75fb      	strb	r3, [r7, #23]
            pI2CHandle->TxRxState;

    if(busystate != I2C_BUSY_IN_RX)
 8000d9e:	7dfb      	ldrb	r3, [r7, #23]
 8000da0:	2b01      	cmp	r3, #1
 8000da2:	d056      	beq.n	8000e52 <I2C_MasterReceiveDataIT+0xc8>
    {
        pI2CHandle->pRxBuffer = pRxBuffer;
 8000da4:	68fb      	ldr	r3, [r7, #12]
 8000da6:	68ba      	ldr	r2, [r7, #8]
 8000da8:	611a      	str	r2, [r3, #16]
        pI2CHandle->RxLen = Len;
 8000daa:	68fb      	ldr	r3, [r7, #12]
 8000dac:	687a      	ldr	r2, [r7, #4]
 8000dae:	619a      	str	r2, [r3, #24]

        pI2CHandle->TxRxState =
 8000db0:	68fb      	ldr	r3, [r7, #12]
 8000db2:	2201      	movs	r2, #1
 8000db4:	771a      	strb	r2, [r3, #28]
                I2C_BUSY_IN_RX;

        while(pI2CHandle->pI2Cx->ISR &
 8000db6:	bf00      	nop
 8000db8:	68fb      	ldr	r3, [r7, #12]
 8000dba:	681b      	ldr	r3, [r3, #0]
 8000dbc:	699b      	ldr	r3, [r3, #24]
 8000dbe:	f403 4300 	and.w	r3, r3, #32768	@ 0x8000
 8000dc2:	2b00      	cmp	r3, #0
 8000dc4:	d1f8      	bne.n	8000db8 <I2C_MasterReceiveDataIT+0x2e>
                (1 << I2C_ISR_BUSY_Pos));

        pI2CHandle->pI2Cx->CR2 = 0;
 8000dc6:	68fb      	ldr	r3, [r7, #12]
 8000dc8:	681b      	ldr	r3, [r3, #0]
 8000dca:	2200      	movs	r2, #0
 8000dcc:	605a      	str	r2, [r3, #4]

        pI2CHandle->pI2Cx->CR2 |=
 8000dce:	68fb      	ldr	r3, [r7, #12]
 8000dd0:	681b      	ldr	r3, [r3, #0]
 8000dd2:	6859      	ldr	r1, [r3, #4]
                (SlaveAddr << 1);
 8000dd4:	78fb      	ldrb	r3, [r7, #3]
 8000dd6:	005a      	lsls	r2, r3, #1
        pI2CHandle->pI2Cx->CR2 |=
 8000dd8:	68fb      	ldr	r3, [r7, #12]
 8000dda:	681b      	ldr	r3, [r3, #0]
 8000ddc:	430a      	orrs	r2, r1
 8000dde:	605a      	str	r2, [r3, #4]

        pI2CHandle->pI2Cx->CR2 |=
 8000de0:	68fb      	ldr	r3, [r7, #12]
 8000de2:	681b      	ldr	r3, [r3, #0]
 8000de4:	685a      	ldr	r2, [r3, #4]
 8000de6:	68fb      	ldr	r3, [r7, #12]
 8000de8:	681b      	ldr	r3, [r3, #0]
 8000dea:	f442 6280 	orr.w	r2, r2, #1024	@ 0x400
 8000dee:	605a      	str	r2, [r3, #4]
                (1 << I2C_CR2_RD_WRN_Pos);

        pI2CHandle->pI2Cx->CR2 |=
 8000df0:	68fb      	ldr	r3, [r7, #12]
 8000df2:	681b      	ldr	r3, [r3, #0]
 8000df4:	6859      	ldr	r1, [r3, #4]
                (Len << I2C_CR2_NBYTES_Pos);
 8000df6:	687b      	ldr	r3, [r7, #4]
 8000df8:	041a      	lsls	r2, r3, #16
        pI2CHandle->pI2Cx->CR2 |=
 8000dfa:	68fb      	ldr	r3, [r7, #12]
 8000dfc:	681b      	ldr	r3, [r3, #0]
 8000dfe:	430a      	orrs	r2, r1
 8000e00:	605a      	str	r2, [r3, #4]

        pI2CHandle->pI2Cx->CR2 |=
 8000e02:	68fb      	ldr	r3, [r7, #12]
 8000e04:	681b      	ldr	r3, [r3, #0]
 8000e06:	685a      	ldr	r2, [r3, #4]
 8000e08:	68fb      	ldr	r3, [r7, #12]
 8000e0a:	681b      	ldr	r3, [r3, #0]
 8000e0c:	f042 7200 	orr.w	r2, r2, #33554432	@ 0x2000000
 8000e10:	605a      	str	r2, [r3, #4]
                (1 << I2C_CR2_AUTOEND_Pos);

        /*
         * Enable interrupts
         */
        pI2CHandle->pI2Cx->CR1 |=
 8000e12:	68fb      	ldr	r3, [r7, #12]
 8000e14:	681b      	ldr	r3, [r3, #0]
 8000e16:	681a      	ldr	r2, [r3, #0]
 8000e18:	68fb      	ldr	r3, [r7, #12]
 8000e1a:	681b      	ldr	r3, [r3, #0]
 8000e1c:	f042 0204 	orr.w	r2, r2, #4
 8000e20:	601a      	str	r2, [r3, #0]
                (1 << I2C_CR1_RXIE_Pos);

        pI2CHandle->pI2Cx->CR1 |=
 8000e22:	68fb      	ldr	r3, [r7, #12]
 8000e24:	681b      	ldr	r3, [r3, #0]
 8000e26:	681a      	ldr	r2, [r3, #0]
 8000e28:	68fb      	ldr	r3, [r7, #12]
 8000e2a:	681b      	ldr	r3, [r3, #0]
 8000e2c:	f042 0220 	orr.w	r2, r2, #32
 8000e30:	601a      	str	r2, [r3, #0]
                (1 << I2C_CR1_STOPIE_Pos);

        pI2CHandle->pI2Cx->CR1 |=
 8000e32:	68fb      	ldr	r3, [r7, #12]
 8000e34:	681b      	ldr	r3, [r3, #0]
 8000e36:	681a      	ldr	r2, [r3, #0]
 8000e38:	68fb      	ldr	r3, [r7, #12]
 8000e3a:	681b      	ldr	r3, [r3, #0]
 8000e3c:	f042 0210 	orr.w	r2, r2, #16
 8000e40:	601a      	str	r2, [r3, #0]
                (1 << I2C_CR1_NACKIE_Pos);

        /*
         * START
         */
        pI2CHandle->pI2Cx->CR2 |=
 8000e42:	68fb      	ldr	r3, [r7, #12]
 8000e44:	681b      	ldr	r3, [r3, #0]
 8000e46:	685a      	ldr	r2, [r3, #4]
 8000e48:	68fb      	ldr	r3, [r7, #12]
 8000e4a:	681b      	ldr	r3, [r3, #0]
 8000e4c:	f442 5200 	orr.w	r2, r2, #8192	@ 0x2000
 8000e50:	605a      	str	r2, [r3, #4]
                (1 << I2C_CR2_START_Pos);
    }

    return busystate;
 8000e52:	7dfb      	ldrb	r3, [r7, #23]
}
 8000e54:	4618      	mov	r0, r3
 8000e56:	371c      	adds	r7, #28
 8000e58:	46bd      	mov	sp, r7
 8000e5a:	f85d 7b04 	ldr.w	r7, [sp], #4
 8000e5e:	4770      	bx	lr

08000e60 <I2C_EV_IRQHandling>:

void I2C_EV_IRQHandling(I2C_Handle_t *pI2CHandle)
{
 8000e60:	b480      	push	{r7}
 8000e62:	b085      	sub	sp, #20
 8000e64:	af00      	add	r7, sp, #0
 8000e66:	6078      	str	r0, [r7, #4]
    uint32_t temp;

    /*
     * TXIS
     */
    temp = pI2CHandle->pI2Cx->ISR &
 8000e68:	687b      	ldr	r3, [r7, #4]
 8000e6a:	681b      	ldr	r3, [r3, #0]
 8000e6c:	699b      	ldr	r3, [r3, #24]
 8000e6e:	f003 0302 	and.w	r3, r3, #2
 8000e72:	60fb      	str	r3, [r7, #12]
            (1 << I2C_ISR_TXIS_Pos);

    if(temp &&
 8000e74:	68fb      	ldr	r3, [r7, #12]
 8000e76:	2b00      	cmp	r3, #0
 8000e78:	d017      	beq.n	8000eaa <I2C_EV_IRQHandling+0x4a>
       (pI2CHandle->TxRxState ==
 8000e7a:	687b      	ldr	r3, [r7, #4]
 8000e7c:	7f1b      	ldrb	r3, [r3, #28]
    if(temp &&
 8000e7e:	2b02      	cmp	r3, #2
 8000e80:	d113      	bne.n	8000eaa <I2C_EV_IRQHandling+0x4a>
        I2C_BUSY_IN_TX))
    {
        if(pI2CHandle->TxLen > 0)
 8000e82:	687b      	ldr	r3, [r7, #4]
 8000e84:	695b      	ldr	r3, [r3, #20]
 8000e86:	2b00      	cmp	r3, #0
 8000e88:	d00f      	beq.n	8000eaa <I2C_EV_IRQHandling+0x4a>
        {
            pI2CHandle->pI2Cx->TXDR =
                    *(pI2CHandle->pTxBuffer);
 8000e8a:	687b      	ldr	r3, [r7, #4]
 8000e8c:	68db      	ldr	r3, [r3, #12]
 8000e8e:	781a      	ldrb	r2, [r3, #0]
            pI2CHandle->pI2Cx->TXDR =
 8000e90:	687b      	ldr	r3, [r7, #4]
 8000e92:	681b      	ldr	r3, [r3, #0]
 8000e94:	629a      	str	r2, [r3, #40]	@ 0x28

            pI2CHandle->pTxBuffer++;
 8000e96:	687b      	ldr	r3, [r7, #4]
 8000e98:	68db      	ldr	r3, [r3, #12]
 8000e9a:	1c5a      	adds	r2, r3, #1
 8000e9c:	687b      	ldr	r3, [r7, #4]
 8000e9e:	60da      	str	r2, [r3, #12]
            pI2CHandle->TxLen--;
 8000ea0:	687b      	ldr	r3, [r7, #4]
 8000ea2:	695b      	ldr	r3, [r3, #20]
 8000ea4:	1e5a      	subs	r2, r3, #1
 8000ea6:	687b      	ldr	r3, [r7, #4]
 8000ea8:	615a      	str	r2, [r3, #20]
    }

    /*
     * RXNE
     */
    temp = pI2CHandle->pI2Cx->ISR &
 8000eaa:	687b      	ldr	r3, [r7, #4]
 8000eac:	681b      	ldr	r3, [r3, #0]
 8000eae:	699b      	ldr	r3, [r3, #24]
 8000eb0:	f003 0304 	and.w	r3, r3, #4
 8000eb4:	60fb      	str	r3, [r7, #12]
            (1 << I2C_ISR_RXNE_Pos);

    if(temp &&
 8000eb6:	68fb      	ldr	r3, [r7, #12]
 8000eb8:	2b00      	cmp	r3, #0
 8000eba:	d014      	beq.n	8000ee6 <I2C_EV_IRQHandling+0x86>
       (pI2CHandle->TxRxState ==
 8000ebc:	687b      	ldr	r3, [r7, #4]
 8000ebe:	7f1b      	ldrb	r3, [r3, #28]
    if(temp &&
 8000ec0:	2b01      	cmp	r3, #1
 8000ec2:	d110      	bne.n	8000ee6 <I2C_EV_IRQHandling+0x86>
        I2C_BUSY_IN_RX))
    {
        *(pI2CHandle->pRxBuffer) =
                pI2CHandle->pI2Cx->RXDR;
 8000ec4:	687b      	ldr	r3, [r7, #4]
 8000ec6:	681b      	ldr	r3, [r3, #0]
 8000ec8:	6a5a      	ldr	r2, [r3, #36]	@ 0x24
        *(pI2CHandle->pRxBuffer) =
 8000eca:	687b      	ldr	r3, [r7, #4]
 8000ecc:	691b      	ldr	r3, [r3, #16]
 8000ece:	b2d2      	uxtb	r2, r2
 8000ed0:	701a      	strb	r2, [r3, #0]

        pI2CHandle->pRxBuffer++;
 8000ed2:	687b      	ldr	r3, [r7, #4]
 8000ed4:	691b      	ldr	r3, [r3, #16]
 8000ed6:	1c5a      	adds	r2, r3, #1
 8000ed8:	687b      	ldr	r3, [r7, #4]
 8000eda:	611a      	str	r2, [r3, #16]
        pI2CHandle->RxLen--;
 8000edc:	687b      	ldr	r3, [r7, #4]
 8000ede:	699b      	ldr	r3, [r3, #24]
 8000ee0:	1e5a      	subs	r2, r3, #1
 8000ee2:	687b      	ldr	r3, [r7, #4]
 8000ee4:	619a      	str	r2, [r3, #24]
    }

    /*
     * STOPF
     */
    temp = pI2CHandle->pI2Cx->ISR &
 8000ee6:	687b      	ldr	r3, [r7, #4]
 8000ee8:	681b      	ldr	r3, [r3, #0]
 8000eea:	699b      	ldr	r3, [r3, #24]
 8000eec:	f003 0320 	and.w	r3, r3, #32
 8000ef0:	60fb      	str	r3, [r7, #12]
            (1 << I2C_ISR_STOPF_Pos);

    if(temp)
 8000ef2:	68fb      	ldr	r3, [r7, #12]
 8000ef4:	2b00      	cmp	r3, #0
 8000ef6:	d01a      	beq.n	8000f2e <I2C_EV_IRQHandling+0xce>
    {
        /*
         * Clear STOP
         */
        pI2CHandle->pI2Cx->ICR |=
 8000ef8:	687b      	ldr	r3, [r7, #4]
 8000efa:	681b      	ldr	r3, [r3, #0]
 8000efc:	69da      	ldr	r2, [r3, #28]
 8000efe:	687b      	ldr	r3, [r7, #4]
 8000f00:	681b      	ldr	r3, [r3, #0]
 8000f02:	f042 0220 	orr.w	r2, r2, #32
 8000f06:	61da      	str	r2, [r3, #28]
                (1 << I2C_ICR_STOPCF_Pos);

        /*
         * Disable interrupts
         */
        pI2CHandle->pI2Cx->CR1 &=
 8000f08:	687b      	ldr	r3, [r7, #4]
 8000f0a:	681b      	ldr	r3, [r3, #0]
 8000f0c:	681a      	ldr	r2, [r3, #0]
 8000f0e:	687b      	ldr	r3, [r7, #4]
 8000f10:	681b      	ldr	r3, [r3, #0]
 8000f12:	f022 0202 	bic.w	r2, r2, #2
 8000f16:	601a      	str	r2, [r3, #0]
                ~(1 << I2C_CR1_TXIE_Pos);

        pI2CHandle->pI2Cx->CR1 &=
 8000f18:	687b      	ldr	r3, [r7, #4]
 8000f1a:	681b      	ldr	r3, [r3, #0]
 8000f1c:	681a      	ldr	r2, [r3, #0]
 8000f1e:	687b      	ldr	r3, [r7, #4]
 8000f20:	681b      	ldr	r3, [r3, #0]
 8000f22:	f022 0204 	bic.w	r2, r2, #4
 8000f26:	601a      	str	r2, [r3, #0]
                ~(1 << I2C_CR1_RXIE_Pos);

        /*
         * Ready
         */
        pI2CHandle->TxRxState =
 8000f28:	687b      	ldr	r3, [r7, #4]
 8000f2a:	2200      	movs	r2, #0
 8000f2c:	771a      	strb	r2, [r3, #28]
    }

    /*
     * NACK
     */
    temp = pI2CHandle->pI2Cx->ISR &
 8000f2e:	687b      	ldr	r3, [r7, #4]
 8000f30:	681b      	ldr	r3, [r3, #0]
 8000f32:	699b      	ldr	r3, [r3, #24]
 8000f34:	f003 0310 	and.w	r3, r3, #16
 8000f38:	60fb      	str	r3, [r7, #12]
            (1 << I2C_ISR_NACKF_Pos);

    if(temp)
 8000f3a:	68fb      	ldr	r3, [r7, #12]
 8000f3c:	2b00      	cmp	r3, #0
 8000f3e:	d00a      	beq.n	8000f56 <I2C_EV_IRQHandling+0xf6>
    {
        /*
         * Clear NACK
         */
        pI2CHandle->pI2Cx->ICR |=
 8000f40:	687b      	ldr	r3, [r7, #4]
 8000f42:	681b      	ldr	r3, [r3, #0]
 8000f44:	69da      	ldr	r2, [r3, #28]
 8000f46:	687b      	ldr	r3, [r7, #4]
 8000f48:	681b      	ldr	r3, [r3, #0]
 8000f4a:	f042 0210 	orr.w	r2, r2, #16
 8000f4e:	61da      	str	r2, [r3, #28]
                (1 << I2C_ICR_NACKCF_Pos);

        pI2CHandle->TxRxState =
 8000f50:	687b      	ldr	r3, [r7, #4]
 8000f52:	2200      	movs	r2, #0
 8000f54:	771a      	strb	r2, [r3, #28]
                I2C_READY;
    }
}
 8000f56:	bf00      	nop
 8000f58:	3714      	adds	r7, #20
 8000f5a:	46bd      	mov	sp, r7
 8000f5c:	f85d 7b04 	ldr.w	r7, [sp], #4
 8000f60:	4770      	bx	lr
	...

08000f64 <__libc_init_array>:
 8000f64:	b570      	push	{r4, r5, r6, lr}
 8000f66:	4d0d      	ldr	r5, [pc, #52]	@ (8000f9c <__libc_init_array+0x38>)
 8000f68:	4c0d      	ldr	r4, [pc, #52]	@ (8000fa0 <__libc_init_array+0x3c>)
 8000f6a:	1b64      	subs	r4, r4, r5
 8000f6c:	10a4      	asrs	r4, r4, #2
 8000f6e:	2600      	movs	r6, #0
 8000f70:	42a6      	cmp	r6, r4
 8000f72:	d109      	bne.n	8000f88 <__libc_init_array+0x24>
 8000f74:	4d0b      	ldr	r5, [pc, #44]	@ (8000fa4 <__libc_init_array+0x40>)
 8000f76:	4c0c      	ldr	r4, [pc, #48]	@ (8000fa8 <__libc_init_array+0x44>)
 8000f78:	f000 f818 	bl	8000fac <_init>
 8000f7c:	1b64      	subs	r4, r4, r5
 8000f7e:	10a4      	asrs	r4, r4, #2
 8000f80:	2600      	movs	r6, #0
 8000f82:	42a6      	cmp	r6, r4
 8000f84:	d105      	bne.n	8000f92 <__libc_init_array+0x2e>
 8000f86:	bd70      	pop	{r4, r5, r6, pc}
 8000f88:	f855 3b04 	ldr.w	r3, [r5], #4
 8000f8c:	4798      	blx	r3
 8000f8e:	3601      	adds	r6, #1
 8000f90:	e7ee      	b.n	8000f70 <__libc_init_array+0xc>
 8000f92:	f855 3b04 	ldr.w	r3, [r5], #4
 8000f96:	4798      	blx	r3
 8000f98:	3601      	adds	r6, #1
 8000f9a:	e7f2      	b.n	8000f82 <__libc_init_array+0x1e>
 8000f9c:	08000fc4 	.word	0x08000fc4
 8000fa0:	08000fc4 	.word	0x08000fc4
 8000fa4:	08000fc4 	.word	0x08000fc4
 8000fa8:	08000fc8 	.word	0x08000fc8

08000fac <_init>:
 8000fac:	b5f8      	push	{r3, r4, r5, r6, r7, lr}
 8000fae:	bf00      	nop
 8000fb0:	bcf8      	pop	{r3, r4, r5, r6, r7}
 8000fb2:	bc08      	pop	{r3}
 8000fb4:	469e      	mov	lr, r3
 8000fb6:	4770      	bx	lr

08000fb8 <_fini>:
 8000fb8:	b5f8      	push	{r3, r4, r5, r6, r7, lr}
 8000fba:	bf00      	nop
 8000fbc:	bcf8      	pop	{r3, r4, r5, r6, r7}
 8000fbe:	bc08      	pop	{r3}
 8000fc0:	469e      	mov	lr, r3
 8000fc2:	4770      	bx	lr
